LX51 LINKER/LOCATER V4.66.30.0                                                          04/24/2017  21:26:22  PAGE 1


LX51 LINKER/LOCATER V4.66.30.0, INVOKED BY:
C:\SILICONLABS\SIMPLICITYSTUDIO\V4\DEVELOPER\TOOLCHAINS\KEIL_8051\9.53\BIN\LX51.EXE ./lib/bsp/efm8_joystick/joystick.OBJ
>> , ./lib/bsp/efm8_memory_lcd/src/disp.OBJ, ./lib/bsp/efm8_memory_lcd/src/render.OBJ, ./lib/efm8bb3/bsp/efm8_memory_lcd
>> /src/source/spi.OBJ, ./lib/efm8bb3/bsp/efm8_memory_lcd/src/source/tick.OBJ, ./lib/efm8bb3/peripheralDrivers/src/spi_0
>> .OBJ, ./src/InitDevice.OBJ, ./src/Interrupts.OBJ, ./src/SILABS_STARTUP.OBJ, ./src/adc.OBJ, ./src/blink.OBJ, ./src/mai
>> n.OBJ, ./src/voltmeter.OBJ TO EFM8BB3_VOLTMETER_3_2.OMF.CRBUILD REMOVEUNUSED PRINT (.\EFM8BB3_Voltmeter_3_2.m51) PAGE
>> WIDTH (120) PAGELENGTH (65) CLASSES (ECODE (C:0X0-C:0XFBFE), HCONST (C:0X0-C:0XFBFE), XDATA (X:0X0-X:0XFFF), HDATA (X
>> :0X0-X:0XFFF))


CPU MODE:     8051 MODE
MEMORY MODEL: SMALL


INPUT MODULES INCLUDED:
  ./lib/bsp/efm8_joystick/joystick.OBJ (JOYSTICK)
         COMMENT TYPE 0: C51 V9.53.0.0
  ./lib/bsp/efm8_memory_lcd/src/disp.OBJ (DISP)
         COMMENT TYPE 0: C51 V9.53.0.0
  ./lib/bsp/efm8_memory_lcd/src/render.OBJ (RENDER)
         COMMENT TYPE 0: C51 V9.53.0.0
  ./lib/efm8bb3/bsp/efm8_memory_lcd/src/source/spi.OBJ (SPI)
         COMMENT TYPE 0: C51 V9.53.0.0
  ./lib/efm8bb3/bsp/efm8_memory_lcd/src/source/tick.OBJ (TICK)
         COMMENT TYPE 0: C51 V9.53.0.0
  ./lib/efm8bb3/peripheralDrivers/src/spi_0.OBJ (SPI_0)
         COMMENT TYPE 0: C51 V9.53.0.0
  ./src/InitDevice.OBJ (INITDEVICE)
         COMMENT TYPE 0: C51 V9.53.0.0
  ./src/Interrupts.OBJ (INTERRUPTS)
         COMMENT TYPE 0: C51 V9.53.0.0
  ./src/SILABS_STARTUP.OBJ (?C_STARTUP)
         COMMENT TYPE 0: AX51 V3.12.0.0
  ./src/adc.OBJ (ADC)
         COMMENT TYPE 0: C51 V9.53.0.0
  ./src/blink.OBJ (STARTLIGHTS)
         COMMENT TYPE 0: AX51 V3.12.0.0
  ./src/main.OBJ (MAIN)
         COMMENT TYPE 0: C51 V9.53.0.0
  ./src/voltmeter.OBJ (VOLTMETER)
         COMMENT TYPE 0: C51 V9.53.0.0
  C:\SILICONLABS\SIMPLICITYSTUDIO\V4\DEVELOPER\TOOLCHAINS\KEIL_8051\9.53\LIB\C51S.LIB (?C_INIT)
         COMMENT TYPE 1: A51 / ASM51 Assembler
  C:\SILICONLABS\SIMPLICITYSTUDIO\V4\DEVELOPER\TOOLCHAINS\KEIL_8051\9.53\LIB\C51S.LIB (?C?CLDPTR)
         COMMENT TYPE 1: A51 / ASM51 Assembler
  C:\SILICONLABS\SIMPLICITYSTUDIO\V4\DEVELOPER\TOOLCHAINS\KEIL_8051\9.53\LIB\C51S.LIB (?C?CLDOPTR)
         COMMENT TYPE 1: A51 / ASM51 Assembler
  C:\SILICONLABS\SIMPLICITYSTUDIO\V4\DEVELOPER\TOOLCHAINS\KEIL_8051\9.53\LIB\C51S.LIB (?C?CSTOPTR)
         COMMENT TYPE 1: A51 / ASM51 Assembler
  C:\SILICONLABS\SIMPLICITYSTUDIO\V4\DEVELOPER\TOOLCHAINS\KEIL_8051\9.53\LIB\C51S.LIB (?C?IMUL)
         COMMENT TYPE 1: A51 / ASM51 Assembler
  C:\SILICONLABS\SIMPLICITYSTUDIO\V4\DEVELOPER\TOOLCHAINS\KEIL_8051\9.53\LIB\C51S.LIB (?C?UIDIV)
         COMMENT TYPE 1: A51 / ASM51 Assembler
  C:\SILICONLABS\SIMPLICITYSTUDIO\V4\DEVELOPER\TOOLCHAINS\KEIL_8051\9.53\LIB\C51S.LIB (?C?LMUL)
         COMMENT TYPE 1: A51 / ASM51 Assembler
  C:\SILICONLABS\SIMPLICITYSTUDIO\V4\DEVELOPER\TOOLCHAINS\KEIL_8051\9.53\LIB\C51S.LIB (?C?ULDIV)
         COMMENT TYPE 1: A51 / ASM51 Assembler
  C:\SILICONLABS\SIMPLICITYSTUDIO\V4\DEVELOPER\TOOLCHAINS\KEIL_8051\9.53\LIB\C51S.LIB (?C?ULCMP)
         COMMENT TYPE 1: A51 / ASM51 Assembler
  C:\SILICONLABS\SIMPLICITYSTUDIO\V4\DEVELOPER\TOOLCHAINS\KEIL_8051\9.53\LIB\C51S.LIB (?C?ULSHR)
         COMMENT TYPE 1: A51 / ASM51 Assembler


LX51 LINKER/LOCATER V4.66.30.0                                                        04/24/2017  21:26:22  PAGE 2


ACTIVE MEMORY CLASSES OF MODULE:  EFM8BB3_VOLTMETER_3_2.OMF.CRBUILD (JOYSTICK)

BASE        START       END         USED      MEMORY CLASS
==========================================================
C:000000H   C:000000H   C:00FBFEH             ECODE
B00:0000H   C:000000H   C:00FBFEH             HCONST
X:000000H   X:000000H   X:000FFFH   000022H   XDATA
X:000000H   X:000000H   X:000FFFH             HDATA
C:000000H   C:000000H   C:00FFFFH   00145DH   CODE
I:000000H   I:000000H   I:00007FH   00005DH   DATA
C:000000H   C:000000H   C:00FFFFH   000320H   CONST
X:000000H   X:000000H   X:0000FFH   000014H   PDATA
I:000020H.0 I:000020H.0 I:00002FH.7 000000H.6 BIT
I:000000H   I:000000H   I:0000FFH   000001H   IDATA


MEMORY MAP OF MODULE:  EFM8BB3_VOLTMETER_3_2.OMF.CRBUILD (JOYSTICK)


START     STOP      LENGTH    ALIGN  RELOC    MEMORY CLASS   SEGMENT NAME
=========================================================================

* * * * * * * * * * *   D A T A   M E M O R Y   * * * * * * * * * * * * *
000000H   000007H   000008H   ---    AT..     DATA           "REG BANK 0"
000008H   000016H   00000FH   BYTE   UNIT     DATA           ?DT?VOLTMETER
000017H   00001CH   000006H   BYTE   UNIT     DATA           ?DT?SPI_0
00001DH   00001EH   000002H   BYTE   UNIT     DATA           ?DT?DISP
00001FH.0 00001FH.7 000001H.0 ---    ---      **GAP**
000020H.0 000020H.4 000000H.5 BIT    UNIT     BIT            ?BI?SPI_0
000020H.5 000020H.5 000000H.1 BIT    UNIT     BIT            ?BI?VOLTMETER
000020H.6 000020H   000000H.2 ---    ---      **GAP**
000021H   000050H   000030H   BYTE   UNIT     DATA           _DATA_GROUP_
000051H   00005AH   00000AH   BYTE   UNIT     DATA           ?DT?ADC
00005BH   00005CH   000002H   BYTE   UNIT     DATA           ?DT?SPI
00005DH   00005EH   000002H   BYTE   UNIT     DATA           ?DT?TICK
00005FH   00005FH   000001H   BYTE   UNIT     IDATA          ?STACK

* * * * * * * * * * *   C O D E   M E M O R Y   * * * * * * * * * * * * *
000000H   000310H   000311H   ---    OFFS..   CODE           ?CO?BLINK?0
*** OVERLAP ***
000000H   000002H   000003H   ---    OFFS..   CODE           ?CO?SILABS_STARTUP?3
*** OVERLAP ***
000003H   000005H   000003H   BYTE   OFFS..   CODE           ?VOLTMETER?00003
*** OVERLAP ***
00000BH   00000DH   000003H   BYTE   OFFS..   CODE           ?VOLTMETER?0000B
*** OVERLAP ***
000013H   000015H   000003H   BYTE   OFFS..   CODE           ?VOLTMETER?00013
*** OVERLAP ***
00002BH   00002DH   000003H   BYTE   OFFS..   CODE           ?SPI?0002B
*** OVERLAP ***
000033H   000035H   000003H   BYTE   OFFS..   CODE           ?SPI_0?00033
*** OVERLAP ***
000053H   000055H   000003H   BYTE   OFFS..   CODE           ?ADC?00053
*** OVERLAP ***
000073H   000075H   000003H   BYTE   OFFS..   CODE           ?TICK?00073
000311H   000890H   000580H   BYTE   UNIT     CODE           ?CO?VOLTMETER
000891H   000AA0H   000210H   BYTE   UNIT     CODE           ?C?LIB_CODE
000AA1H   000C0AH   00016AH   BYTE   UNIT     CODE           ?PR?_RENDER_LARGE_STRLINE?RENDER
000C0BH   000CC6H   0000BCH   BYTE   UNIT     CODE           ?PR?RESETLAP?VOLTMETER
000CC7H   000D6FH   0000A9H   BYTE   UNIT     CODE           ?PR?ADC0EOC_ISR?ADC
000D70H   000E06H   000097H   BYTE   UNIT     CODE           ?PR?SPI0_ISR?SPI_0
000E07H   000E9DH   000097H   BYTE   UNIT     CODE           ?PR?_CONVERTMILLIVOLTTOVOLT?VOLTMETER
LX51 LINKER/LOCATER V4.66.30.0                                                        04/24/2017  21:26:22  PAGE 3


000E9EH   000F29H   00008CH   BYTE   UNIT     CODE           ?C_C51STARTUP
000F2AH   000F92H   000069H   BYTE   UNIT     CODE           ?PR?_RENDER_BYTE?RENDER
000F93H   000FF5H   000063H   BYTE   UNIT     CODE           ?PR?_DRAWSCREENTEXT?VOLTMETER
000FF6H   001054H   00005FH   BYTE   UNIT     CODE           ?PR?TIMER2_ISR?SPI
001055H   0010A6H   000052H   BYTE   UNIT     CODE           ?PR?_SPI0_TRANSFER?SPI_0
0010A7H   0010F4H   00004EH   BYTE   UNIT     CODE           ?PR?VOLTMETER_MAIN?VOLTMETER
0010F5H   001138H   000044H   BYTE   UNIT     CODE           ?C_INITSEG
001139H   00117AH   000042H   BYTE   UNIT     CODE           ?PR?_DISP_WRITELINE?DISP
00117BH   0011BBH   000041H   BYTE   UNIT     CODE           ?PR?_SPI_STARTTRANSFER?SPI
0011BCH   0011F6H   00003BH   BYTE   UNIT     CODE           ?PR?_DISP_CLEARLINE?DISP
0011F7H   001227H   000031H   BYTE   UNIT     CODE           ?PR?START?STARTLIGHTS
001228H   001255H   00002EH   BYTE   UNIT     CODE           ?PR?ENTER_DEFAULTMODE_FROM_RESET?INITDEVICE
001256H   001281H   00002CH   BYTE   UNIT     CODE           ?PR?_BITREVERSE?DISP
001282H   0012A3H   000022H   BYTE   UNIT     CODE           ?PR?NEWLAP?VOLTMETER
0012A4H   0012C4H   000021H   BYTE   UNIT     CODE           ?PR?_SOFTWAREVCOMTOGGLE?DISP
0012C5H   0012E5H   000021H   BYTE   UNIT     CODE           ?PR?TIMER0_ISR?VOLTMETER
0012E6H   001304H   00001FH   BYTE   UNIT     CODE           ?PR?_WAIT?TICK
001305H   00131DH   000019H   BYTE   UNIT     CODE           ?PR?TIMER16_3_ENTER_DEFAULTMODE_FROM_RESET?INITDEVICE
00131EH   001333H   000016H   BYTE   UNIT     CODE           ?PR?GETTICKCOUNT?TICK
001334H   001347H   000014H   BYTE   UNIT     CODE           ?PR?DISP_CLEARALL?DISP
001348H   00135BH   000014H   BYTE   UNIT     CODE           ?PR?SPI0_TRANSFERCOMPLETECB?SPI
00135CH   00136CH   000011H   BYTE   UNIT     CODE           ?PR?_RENDER_CLRLINE?RENDER
00136DH   00137DH   000011H   BYTE   UNIT     CODE           ?PR?SPI0_INTERNALINIT?SPI_0
00137EH   00138DH   000010H   BYTE   UNIT     CODE           ?PR?TIMER3_ISR?TICK
00138EH   00139DH   000010H   BYTE   UNIT     CODE           ?PR?TIMER01_0_ENTER_DEFAULTMODE_FROM_RESET?INITDEVICE
00139EH   0013ADH   000010H   BYTE   UNIT     CODE           ?PR?MAIN?MAIN
0013AEH   0013BBH   00000EH   BYTE   UNIT     CODE           ?PR?DISP_INIT?DISP
0013BCH   0013C8H   00000DH   BYTE   UNIT     CODE           ?PR?SPI_0_ENTER_DEFAULTMODE_FROM_RESET?INITDEVICE
0013C9H   0013D2H   00000AH   BYTE   UNIT     CODE           ?PR?WDT_0_ENTER_DEFAULTMODE_FROM_RESET?INITDEVICE
0013D3H   0013DCH   00000AH   BYTE   UNIT     CODE           ?PR?PORTS_0_ENTER_DEFAULTMODE_FROM_RESET?INITDEVICE
0013DDH   0013E6H   00000AH   BYTE   UNIT     CODE           ?PR?PORTS_1_ENTER_DEFAULTMODE_FROM_RESET?INITDEVICE
0013E7H   0013F0H   00000AH   BYTE   UNIT     CODE           ?PR?PORTS_2_ENTER_DEFAULTMODE_FROM_RESET?INITDEVICE
0013F1H   0013FAH   00000AH   BYTE   UNIT     CODE           ?PR?PBCFG_0_ENTER_DEFAULTMODE_FROM_RESET?INITDEVICE
0013FBH   001404H   00000AH   BYTE   UNIT     CODE           ?PR?TIMER_SETUP_0_ENTER_DEFAULTMODE_FROM_RESET?INITDEVICE
001405H   00140DH   000009H   BYTE   UNIT     CODE           ?PR?CLOCK_0_ENTER_DEFAULTMODE_FROM_RESET?INITDEVICE
00140EH   001414H   000007H   BYTE   UNIT     CODE           ?PR?INTERRUPT_0_ENTER_DEFAULTMODE_FROM_RESET?INITDEVICE
001415H   00141BH   000007H   BYTE   UNIT     CODE           ?PR?SETLIGHTSRED?STARTLIGHTS
00141CH   001422H   000007H   BYTE   UNIT     CODE           ?PR?SETLIGHTSYLW?STARTLIGHTS
001423H   001429H   000007H   BYTE   UNIT     CODE           ?PR?SETLIGHTSGRN?STARTLIGHTS
00142AH   001430H   000007H   BYTE   UNIT     CODE           ?PR?SETLIGHTSOFF?STARTLIGHTS
001431H   001436H   000006H   BYTE   UNIT     CODE           ?PR?INT1_ISR?VOLTMETER
001437H   00143CH   000006H   BYTE   UNIT     CODE           ?PR?INT0_ISR?VOLTMETER
00143DH   001440H   000004H   BYTE   UNIT     CODE           ?PR?EXTINT_0_ENTER_DEFAULTMODE_FROM_RESET?INITDEVICE
001441H   001444H   000004H   BYTE   UNIT     CODE           ?PR?RSTSRC_0_ENTER_DEFAULTMODE_FROM_RESET?INITDEVICE
001445H   001764H   000320H   BYTE   UNIT     CONST          ?CO?RENDER

* * * * * * * * * * *  X D A T A   M E M O R Y  * * * * * * * * * * * * *
000000H   000013H   000014H   BYTE   INPAGE   PDATA          ?PD?SPI
000014H   000035H   000022H   BYTE   UNIT     XDATA          ?XD?VOLTMETER

* * * * * * * * *   R E M O V E D     S E G M E N T S   * * * * * * * *
   *DEL*:           000174H   BYTE   UNIT     CODE           ?PR?_JOYSTICK_CONVERT_MV_TO_DIRECTION?JOYSTICK
   *DEL*:           000005H   BYTE   UNIT     DATA           ?DT?_JOYSTICK_CONVERT_MV_TO_DIRECTION?JOYSTICK
   *DEL*:           000025H   BYTE   UNIT     CODE           ?PR?_RENDER_GETSTRSIZE?RENDER
   *DEL*:           000003H   BYTE   UNIT     DATA           ?DT?_RENDER_GETSTRSIZE?RENDER
   *DEL*:           000024H   BYTE   UNIT     CODE           ?PR?_RENDER_PIXELLINE?RENDER
   *DEL*:           000023H   BYTE   UNIT     CODE           ?PR?_RENDER_LINESEGMENTLINE?RENDER
   *DEL*:           000002H   BYTE   UNIT     DATA           ?DT?_RENDER_LINESEGMENTLINE?RENDER
   *DEL*:           0000B9H   BYTE   UNIT     CODE           ?PR?_RENDER_SPRITELINE?RENDER
   *DEL*:           00000AH   BYTE   UNIT     DATA           ?DT?_RENDER_SPRITELINE?RENDER
   *DEL*:           000084H   BYTE   UNIT     CODE           ?PR?_RENDER_SPRITELINEFOREGROUND?RENDER
   *DEL*:           00000AH   BYTE   UNIT     DATA           ?DT?_RENDER_SPRITELINEFOREGROUND?RENDER
LX51 LINKER/LOCATER V4.66.30.0                                                        04/24/2017  21:26:22  PAGE 4


   *DEL*:           00000DH   BYTE   UNIT     CODE           ?PR?SPI0_GETINTFLAGS?SPI_0
   *DEL*:           00000EH   BYTE   UNIT     CODE           ?PR?_SPI0_CLEARINTFLAGS?SPI_0
   *DEL*:           000013H   BYTE   UNIT     CODE           ?PR?_SPI0_WRITEBYTE?SPI_0
   *DEL*:           000000H.1 BIT    UNIT     BIT            ?BI?_SPI0_WRITEBYTE?SPI_0
   *DEL*:           00000DH   BYTE   UNIT     CODE           ?PR?_SPI0_POLLWRITEBYTE?SPI_0
   *DEL*:           00000CH   BYTE   UNIT     CODE           ?PR?SPI0_READBYTE?SPI_0
   *DEL*:           000011H   BYTE   UNIT     CODE           ?PR?SPI0_POLLREADBYTE?SPI_0
   *DEL*:           00007DH   BYTE   UNIT     CODE           ?PR?_SPI0_POLLTRANSFER?SPI_0
   *DEL*:           000007H   BYTE   UNIT     DATA           ?DT?_SPI0_POLLTRANSFER?SPI_0
   *DEL*:           000000H.1 BIT    UNIT     BIT            ?BI?_SPI0_POLLTRANSFER?SPI_0
   *DEL*:           000019H   BYTE   UNIT     CODE           ?PR?SPI0_ISBUSY?SPI_0
   *DEL*:           000000H.1 BIT    UNIT     BIT            ?BI?SPI0_ISBUSY?SPI_0
   *DEL*:           00000FH   BYTE   UNIT     CODE           ?PR?SPI0_ISTXFULL?SPI_0
   *DEL*:           000000H.1 BIT    UNIT     BIT            ?BI?SPI0_ISTXFULL?SPI_0
   *DEL*:           000010H   BYTE   UNIT     CODE           ?PR?SPI0_ISSLAVESELECTED?SPI_0
   *DEL*:           000000H.1 BIT    UNIT     BIT            ?BI?SPI0_ISSLAVESELECTED?SPI_0
   *DEL*:           000010H   BYTE   UNIT     CODE           ?PR?SPI0_ISSHIFTEMPTY?SPI_0
   *DEL*:           000000H.1 BIT    UNIT     BIT            ?BI?SPI0_ISSHIFTEMPTY?SPI_0
   *DEL*:           00000FH   BYTE   UNIT     CODE           ?PR?SPI0_ISRXEMPTY?SPI_0
   *DEL*:           000000H.1 BIT    UNIT     BIT            ?BI?SPI0_ISRXEMPTY?SPI_0
   *DEL*:           000036H   BYTE   UNIT     CODE           ?PR?_SPI0_INIT?SPI_0
   *DEL*:           000000H.2 BIT    UNIT     BIT            ?BI?_SPI0_INIT?SPI_0
   *DEL*:           000032H   BYTE   UNIT     CODE           ?PR?_SPI0_SETCLOCKDIVIDER?SPI_0
   *DEL*:           00000DH   BYTE   UNIT     CODE           ?PR?SPI0_RESET?SPI_0
   *DEL*:           000013H   BYTE   UNIT     CODE           ?PR?SPI0_ISFIFOTXREQ?SPI_0
   *DEL*:           000000H.1 BIT    UNIT     BIT            ?BI?SPI0_ISFIFOTXREQ?SPI_0
   *DEL*:           000013H   BYTE   UNIT     CODE           ?PR?SPI0_ISFIFORXREQ?SPI_0
   *DEL*:           000000H.1 BIT    UNIT     BIT            ?BI?SPI0_ISFIFORXREQ?SPI_0
   *DEL*:           00000DH   BYTE   UNIT     CODE           ?PR?SPI0_GETRXFIFOCOUNT?SPI_0
   *DEL*:           000010H   BYTE   UNIT     CODE           ?PR?SPI0_GETTXFIFOCOUNT?SPI_0
   *DEL*:           00002EH   BYTE   UNIT     CODE           ?PR?_SPI0_CONFIGUREFIFO?SPI_0
   *DEL*:           000026H   BYTE   UNIT     CODE           ?PR?SPI0_ABORTTRANSFER?SPI_0
   *DEL*:           000003H   BYTE   UNIT     CODE           ?PR?SPI0_BYTESREMAINING?SPI_0
   *DEL*:           000013H   BYTE   UNIT     CODE           ?PR?ADC_0_ENTER_DEFAULTMODE_FROM_RESET?INITDEVICE
   *DEL*:           000001H   BYTE   UNIT     CODE           ?PR?TIMER16_4_ENTER_DEFAULTMODE_FROM_RESET?INITDEVICE
   *DEL*:           00000FH   BYTE   UNIT     CODE           ?PR?ADC_GETVOLTAGE?ADC



OVERLAY MAP OF MODULE:   EFM8BB3_VOLTMETER_3_2.OMF.CRBUILD (JOYSTICK)


FUNCTION/MODULE                                BIT_GROUP   DATA_GROUP 
--> CALLED FUNCTION/MODULE                    START  STOP  START  STOP
======================================================================
TIMER2_ISR/SPI                                ----- -----  ----- -----
  +--> _SPI0_TRANSFER/SPI_0

_SPI0_TRANSFER/SPI_0                          ----- -----  0021H 0025H
  +--> SPI0_INTERNALINIT/SPI_0

SPI0_INTERNALINIT/SPI_0                       ----- -----  ----- -----

*** NEW ROOT ********************************

TIMER3_ISR/TICK                               ----- -----  ----- -----

*** NEW ROOT ********************************

SPI0_ISR/SPI_0                                ----- -----  0026H 0026H
  +--> SPI0_TRANSFERCOMPLETECB/SPI

LX51 LINKER/LOCATER V4.66.30.0                                                        04/24/2017  21:26:22  PAGE 5


SPI0_TRANSFERCOMPLETECB/SPI                   ----- -----  ----- -----

*** NEW ROOT ********************************

?C_C51STARTUP                                 ----- -----  ----- -----
  +--> MAIN/MAIN
  +--> ?C_INITSEG

MAIN/MAIN                                     ----- -----  ----- -----
  +--> ENTER_DEFAULTMODE_FROM_RESET/INITDEVICE
  +--> DISP_INIT/DISP
  +--> VOLTMETER_MAIN/VOLTMETER

ENTER_DEFAULTMODE_FROM_RESET/INITDEVICE       ----- -----  0027H 0027H
  +--> WDT_0_ENTER_DEFAULTMODE_FROM_RESET/INITDEVICE
  +--> PORTS_0_ENTER_DEFAULTMODE_FROM_RESET/INITDEVICE
  +--> PORTS_1_ENTER_DEFAULTMODE_FROM_RESET/INITDEVICE
  +--> PORTS_2_ENTER_DEFAULTMODE_FROM_RESET/INITDEVICE
  +--> PBCFG_0_ENTER_DEFAULTMODE_FROM_RESET/INITDEVICE
  +--> RSTSRC_0_ENTER_DEFAULTMODE_FROM_RESET/INITDEVICE
  +--> CLOCK_0_ENTER_DEFAULTMODE_FROM_RESET/INITDEVICE
  +--> TIMER01_0_ENTER_DEFAULTMODE_FROM_RESET/INITDEVICE
  +--> TIMER16_3_ENTER_DEFAULTMODE_FROM_RESET/INITDEVICE
  +--> TIMER_SETUP_0_ENTER_DEFAULTMODE_FROM_RESET/INITDEVICE
  +--> SPI_0_ENTER_DEFAULTMODE_FROM_RESET/INITDEVICE
  +--> EXTINT_0_ENTER_DEFAULTMODE_FROM_RESET/INITDEVICE
  +--> INTERRUPT_0_ENTER_DEFAULTMODE_FROM_RESET/INITDEVICE

WDT_0_ENTER_DEFAULTMODE_FROM_RESET/INITD+     ----- -----  ----- -----
... EVICE

PORTS_0_ENTER_DEFAULTMODE_FROM_RESET/INI+     ----- -----  ----- -----
... TDEVICE

PORTS_1_ENTER_DEFAULTMODE_FROM_RESET/INI+     ----- -----  ----- -----
... TDEVICE

PORTS_2_ENTER_DEFAULTMODE_FROM_RESET/INI+     ----- -----  ----- -----
... TDEVICE

PBCFG_0_ENTER_DEFAULTMODE_FROM_RESET/INI+     ----- -----  ----- -----
... TDEVICE

RSTSRC_0_ENTER_DEFAULTMODE_FROM_RESET/IN+     ----- -----  ----- -----
... ITDEVICE

CLOCK_0_ENTER_DEFAULTMODE_FROM_RESET/INI+     ----- -----  ----- -----
... TDEVICE

TIMER01_0_ENTER_DEFAULTMODE_FROM_RESET/I+     ----- -----  ----- -----
... NITDEVICE

TIMER16_3_ENTER_DEFAULTMODE_FROM_RESET/I+     ----- -----  ----- -----
... NITDEVICE

TIMER_SETUP_0_ENTER_DEFAULTMODE_FROM_RES+     ----- -----  ----- -----
... ET/INITDEVICE

SPI_0_ENTER_DEFAULTMODE_FROM_RESET/INITD+     ----- -----  ----- -----
... EVICE

EXTINT_0_ENTER_DEFAULTMODE_FROM_RESET/IN+     ----- -----  ----- -----
LX51 LINKER/LOCATER V4.66.30.0                                                        04/24/2017  21:26:22  PAGE 6


... ITDEVICE

INTERRUPT_0_ENTER_DEFAULTMODE_FROM_RESET+     ----- -----  ----- -----
... /INITDEVICE

DISP_INIT/DISP                                ----- -----  ----- -----
  +--> _WAIT/TICK
  +--> DISP_CLEARALL/DISP

_WAIT/TICK                                    ----- -----  ----- -----
  +--> GETTICKCOUNT/TICK

GETTICKCOUNT/TICK                             ----- -----  ----- -----

DISP_CLEARALL/DISP                            ----- -----  0027H 0027H
  +--> _DISP_CLEARLINE/DISP

_DISP_CLEARLINE/DISP                          ----- -----  0028H 003DH
  +--> _SOFTWAREVCOMTOGGLE/DISP
  +--> _BITREVERSE/DISP
  +--> _SPI_STARTTRANSFER/SPI

_SOFTWAREVCOMTOGGLE/DISP                      ----- -----  004AH 004AH
  +--> GETTICKCOUNT/TICK

_BITREVERSE/DISP                              ----- -----  ----- -----

_SPI_STARTTRANSFER/SPI                        ----- -----  004AH 004CH

VOLTMETER_MAIN/VOLTMETER                      ----- -----  0027H 002AH
  +--> START/STARTLIGHTS
  +--> ?CO?VOLTMETER
  +--> _DRAWSCREENTEXT/VOLTMETER
  +--> _CONVERTMILLIVOLTTOVOLT/VOLTMETER
  +--> RESETLAP/VOLTMETER
  +--> NEWLAP/VOLTMETER

START/STARTLIGHTS                             ----- -----  ----- -----
  +--> SETLIGHTSRED/STARTLIGHTS
  +--> ?CO?BLINK?0
  +--> SETLIGHTSOFF/STARTLIGHTS
  +--> SETLIGHTSYLW/STARTLIGHTS
  +--> SETLIGHTSGRN/STARTLIGHTS

SETLIGHTSRED/STARTLIGHTS                      ----- -----  ----- -----

?CO?BLINK?0                                   ----- -----  ----- -----

SETLIGHTSOFF/STARTLIGHTS                      ----- -----  ----- -----

SETLIGHTSYLW/STARTLIGHTS                      ----- -----  ----- -----

SETLIGHTSGRN/STARTLIGHTS                      ----- -----  ----- -----

?CO?VOLTMETER                                 ----- -----  ----- -----

_DRAWSCREENTEXT/VOLTMETER                     ----- -----  002BH 0031H
  +--> _RENDER_CLRLINE/RENDER
  +--> _RENDER_LARGE_STRLINE/RENDER
  +--> _DISP_WRITELINE/DISP

_RENDER_CLRLINE/RENDER                        ----- -----  ----- -----
LX51 LINKER/LOCATER V4.66.30.0                                                        04/24/2017  21:26:22  PAGE 7



_RENDER_LARGE_STRLINE/RENDER                  ----- -----  0032H 003FH
  +--> ?CO?RENDER
  +--> _RENDER_BYTE/RENDER

?CO?RENDER                                    ----- -----  ----- -----

_RENDER_BYTE/RENDER                           ----- -----  0040H 0041H

_DISP_WRITELINE/DISP                          ----- -----  0032H 0049H
  +--> _SOFTWAREVCOMTOGGLE/DISP
  +--> _BITREVERSE/DISP
  +--> _SPI_STARTTRANSFER/SPI

_CONVERTMILLIVOLTTOVOLT/VOLTMETER             ----- -----  002BH 0030H

RESETLAP/VOLTMETER                            ----- -----  ----- -----
  +--> ?CO?VOLTMETER
  +--> _DRAWSCREENTEXT/VOLTMETER

NEWLAP/VOLTMETER                              ----- -----  ----- -----
  +--> _CONVERTMILLIVOLTTOVOLT/VOLTMETER
  +--> _DRAWSCREENTEXT/VOLTMETER

?C_INITSEG                                    ----- -----  ----- -----

*** NEW ROOT ********************************

ADC0EOC_ISR/ADC                               ----- -----  004DH 0050H

*** NEW ROOT ********************************

TIMER0_ISR/VOLTMETER                          ----- -----  ----- -----

*** NEW ROOT ********************************

INT1_ISR/VOLTMETER                            ----- -----  ----- -----

*** NEW ROOT ********************************

INT0_ISR/VOLTMETER                            ----- -----  ----- -----



PUBLIC SYMBOLS OF MODULE:  EFM8BB3_VOLTMETER_3_2.OMF.CRBUILD (JOYSTICK)


      VALUE       CLASS    TYPE      PUBLIC SYMBOL NAME
      =================================================
      0000002BH   DATA     BYTE      ?_drawScreenText?BYTE
      00000032H   DATA     BYTE      ?_RENDER_Large_StrLine?BYTE
*DEL*:00000000H   DATA     BYTE      ?_RENDER_SpriteLine?BYTE
*DEL*:00000000H   DATA     BYTE      ?_RENDER_SpriteLineForeground?BYTE
*DEL*:00000000H.0 BIT      BIT       ?_SPI0_init?BIT
*DEL*:00000000H   DATA     BYTE      ?_SPI0_pollTransfer?BYTE
      00000021H   DATA     BYTE      ?_SPI0_transfer?BYTE
      010008AAH   CODE     ---       ?C?CLDOPTR
      01000891H   CODE     ---       ?C?CLDPTR
      00000000H   NUMBER   ---       ?C?CODESEG
      010008D7H   CODE     ---       ?C?CSTOPTR
      010008F9H   CODE     ---       ?C?IMUL
      01000960H   CODE     ---       ?C?LMUL
LX51 LINKER/LOCATER V4.66.30.0                                                        04/24/2017  21:26:22  PAGE 8


      0100090BH   CODE     ---       ?C?UIDIV
      01000A7DH   CODE     ---       ?C?ULCMP
      010009EBH   CODE     ---       ?C?ULDIV
      01000A8EH   CODE     ---       ?C?ULSHR
      00000000H   NUMBER   ---       ?C?XDATASEG
      01000EE5H   CODE     ---       ?C_START
      01000000H   CODE     NEAR LAB  ?C_STARTUP
      01001256H   CODE     ---       _BitReverse
      01000E18H   CODE     ---       _convertMillivoltToVolt
      010011BCH   CODE     ---       _DISP_ClearLine
      01001139H   CODE     ---       _DISP_WriteLine
      01000F93H   CODE     ---       _drawScreenText
*DEL*:00000000H   CODE     ---       _JOYSTICK_convert_mv_to_direction
      0100135CH   CODE     ---       _RENDER_ClrLine
*DEL*:00000000H   CODE     ---       _RENDER_GetStrSize
      01000AA1H   CODE     ---       _RENDER_Large_StrLine
*DEL*:00000000H   CODE     ---       _RENDER_LineSegmentLine
*DEL*:00000000H   CODE     ---       _RENDER_PixelLine
*DEL*:00000000H   CODE     ---       _RENDER_SpriteLine
*DEL*:00000000H   CODE     ---       _RENDER_SpriteLineForeground
      010012A4H   CODE     ---       _SoftwareVcomToggle
*DEL*:00000000H   CODE     ---       _SPI0_clearIntFlags
*DEL*:00000000H   CODE     ---       _SPI0_configureFifo
*DEL*:00000000H   CODE     ---       _SPI0_init
*DEL*:00000000H   CODE     ---       _SPI0_pollTransfer
*DEL*:00000000H   CODE     ---       _SPI0_pollWriteByte
*DEL*:00000000H   CODE     ---       _SPI0_setClockDivider
      01001055H   CODE     ---       _SPI0_transfer
*DEL*:00000000H   CODE     ---       _SPI0_writeByte
      0100117BH   CODE     ---       _SPI_StartTransfer
      010012E6H   CODE     ---       _Wait
*SFR* 000000E0H   DATA     BYTE      ACC
*SFR* 000000E0H   DATA     BIT       ACC_ACC0
*SFR* 000000E0H.1 DATA     BIT       ACC_ACC1
*SFR* 000000E0H.2 DATA     BIT       ACC_ACC2
*SFR* 000000E0H.3 DATA     BIT       ACC_ACC3
*SFR* 000000E0H.4 DATA     BIT       ACC_ACC4
*SFR* 000000E0H.5 DATA     BIT       ACC_ACC5
*SFR* 000000E0H.6 DATA     BIT       ACC_ACC6
*SFR* 000000E0H.7 DATA     BIT       ACC_ACC7
*SFR* 000000BDH   DATA     WORD      ADC0
*SFR* 000000B5H   DATA     WORD      ADC0ASA
*SFR* 000000B6H   DATA     BYTE      ADC0ASAH
*SFR* 000000B5H   DATA     BYTE      ADC0ASAL
*SFR* 000000A1H   DATA     BYTE      ADC0ASCF
*SFR* 000000C7H   DATA     BYTE      ADC0ASCT
*SFR* 000000BCH   DATA     BYTE      ADC0CF0
*SFR* 000000B9H   DATA     BYTE      ADC0CF1
*SFR* 000000DFH   DATA     BYTE      ADC0CF2
*SFR* 000000E8H   DATA     BYTE      ADC0CN0
*SFR* 000000E8H.4 DATA     BIT       ADC0CN0_ADBUSY
*SFR* 000000E8H.7 DATA     BIT       ADC0CN0_ADEN
*SFR* 000000E8H.1 DATA     BIT       ADC0CN0_ADGN0
*SFR* 000000E8H.2 DATA     BIT       ADC0CN0_ADGN1
*SFR* 000000E8H.5 DATA     BIT       ADC0CN0_ADINT
*SFR* 000000E8H.3 DATA     BIT       ADC0CN0_ADWINT
*SFR* 000000E8H.6 DATA     BIT       ADC0CN0_IPOEN
*SFR* 000000E8H   DATA     BIT       ADC0CN0_TEMPE
*SFR* 000000B2H   DATA     BYTE      ADC0CN1
*SFR* 000000B3H   DATA     BYTE      ADC0CN2
      01000CC7H   CODE     ---       ADC0EOC_ISR
*SFR* 000000C3H   DATA     WORD      ADC0GT
LX51 LINKER/LOCATER V4.66.30.0                                                        04/24/2017  21:26:22  PAGE 9


*SFR* 000000C4H   DATA     BYTE      ADC0GTH
*SFR* 000000C3H   DATA     BYTE      ADC0GTL
*SFR* 000000BEH   DATA     BYTE      ADC0H
*SFR* 000000BDH   DATA     BYTE      ADC0L
*SFR* 000000C5H   DATA     WORD      ADC0LT
*SFR* 000000C6H   DATA     BYTE      ADC0LTH
*SFR* 000000C5H   DATA     BYTE      ADC0LTL
*SFR* 000000BBH   DATA     BYTE      ADC0MX
*DEL*:00000000H   CODE     ---       ADC_0_enter_DefaultMode_from_RESET
*DEL*:00000000H   CODE     ---       ADC_GetVoltage
      00000020H.5 BIT      BIT       adcInput
*SFR* 000000F0H   DATA     BYTE      B
*SFR* 000000F0H   DATA     BIT       B_B0
*SFR* 000000F0H.1 DATA     BIT       B_B1
*SFR* 000000F0H.2 DATA     BIT       B_B2
*SFR* 000000F0H.3 DATA     BIT       B_B3
*SFR* 000000F0H.4 DATA     BIT       B_B4
*SFR* 000000F0H.5 DATA     BIT       B_B5
*SFR* 000000F0H.6 DATA     BIT       B_B6
*SFR* 000000F0H.7 DATA     BIT       B_B7
*SFR* 000000A0H.2 DATA     BIT       BSP_BC_EN
*SFR* 000000A0H.6 DATA     BIT       BSP_DISP_CS
*SFR* 000000B0H.4 DATA     BIT       BSP_DISP_EN
*SFR* 00000090H.7 DATA     BIT       BSP_JOYSTICK
*SFR* 00000090H.5 DATA     BIT       BSP_LED_B
*SFR* 00000090H.4 DATA     BIT       BSP_LED_G
*SFR* 00000090H.6 DATA     BIT       BSP_LED_R
*SFR* 00000080H.2 DATA     BIT       BSP_PB0
*SFR* 00000080H.3 DATA     BIT       BSP_PB1
*SFR* 00000080H.2 DATA     BIT       BTN0
*SFR* 00000080H.3 DATA     BIT       BTN1
      02000028H   XDATA    ---       center_bits
*SFR* 0000008EH   DATA     BYTE      CKCON0
*SFR* 000000A6H   DATA     BYTE      CKCON1
*SFR* 000000C6H   DATA     BYTE      CLEN0
*SFR* 000000C7H   DATA     BYTE      CLIE0
*SFR* 000000E8H   DATA     BYTE      CLIF0
*SFR* 000000E8H   DATA     BIT       CLIF0_C0FIF
*SFR* 000000E8H.1 DATA     BIT       CLIF0_C0RIF
*SFR* 000000E8H.2 DATA     BIT       CLIF0_C1FIF
*SFR* 000000E8H.3 DATA     BIT       CLIF0_C1RIF
*SFR* 000000E8H.4 DATA     BIT       CLIF0_C2FIF
*SFR* 000000E8H.5 DATA     BIT       CLIF0_C2RIF
*SFR* 000000E8H.6 DATA     BIT       CLIF0_C3FIF
*SFR* 000000E8H.7 DATA     BIT       CLIF0_C3RIF
*SFR* 000000A9H   DATA     BYTE      CLKSEL
      01001405H   CODE     ---       CLOCK_0_enter_DefaultMode_from_RESET
*SFR* 000000D1H   DATA     BYTE      CLOUT0
*SFR* 000000B1H   DATA     BYTE      CLU0CF
*SFR* 000000AFH   DATA     BYTE      CLU0FN
*SFR* 00000084H   DATA     BYTE      CLU0MX
*SFR* 000000B3H   DATA     BYTE      CLU1CF
*SFR* 000000B2H   DATA     BYTE      CLU1FN
*SFR* 00000085H   DATA     BYTE      CLU1MX
*SFR* 000000B6H   DATA     BYTE      CLU2CF
*SFR* 000000B5H   DATA     BYTE      CLU2FN
*SFR* 00000091H   DATA     BYTE      CLU2MX
*SFR* 000000BFH   DATA     BYTE      CLU3CF
*SFR* 000000BEH   DATA     BYTE      CLU3FN
*SFR* 000000AEH   DATA     BYTE      CLU3MX
*SFR* 0000009BH   DATA     BYTE      CMP0CN0
*SFR* 00000099H   DATA     BYTE      CMP0CN1
LX51 LINKER/LOCATER V4.66.30.0                                                        04/24/2017  21:26:22  PAGE 10


*SFR* 0000009DH   DATA     BYTE      CMP0MD
*SFR* 0000009FH   DATA     BYTE      CMP0MX
*SFR* 000000BFH   DATA     BYTE      CMP1CN0
*SFR* 000000ACH   DATA     BYTE      CMP1CN1
*SFR* 000000ABH   DATA     BYTE      CMP1MD
*SFR* 000000AAH   DATA     BYTE      CMP1MX
*SFR* 000000CEH   DATA     BYTE      CRC0CN0
*SFR* 00000086H   DATA     BYTE      CRC0CN1
*SFR* 000000D3H   DATA     BYTE      CRC0CNT
*SFR* 000000CBH   DATA     BYTE      CRC0DAT
*SFR* 000000CFH   DATA     BYTE      CRC0FLIP
*SFR* 000000CAH   DATA     BYTE      CRC0IN
*SFR* 000000D2H   DATA     BYTE      CRC0ST
*SFR* 00000091H   DATA     BYTE      DAC0CF0
*SFR* 00000092H   DATA     BYTE      DAC0CF1
*SFR* 00000085H   DATA     BYTE      DAC0H
*SFR* 00000084H   DATA     BYTE      DAC0L
*SFR* 00000093H   DATA     BYTE      DAC1CF0
*SFR* 00000094H   DATA     BYTE      DAC1CF1
*SFR* 0000008AH   DATA     BYTE      DAC1H
*SFR* 00000089H   DATA     BYTE      DAC1L
*SFR* 00000095H   DATA     BYTE      DAC2CF0
*SFR* 00000096H   DATA     BYTE      DAC2CF1
*SFR* 0000008CH   DATA     BYTE      DAC2H
*SFR* 0000008BH   DATA     BYTE      DAC2L
*SFR* 0000009AH   DATA     BYTE      DAC3CF0
*SFR* 0000009CH   DATA     BYTE      DAC3CF1
*SFR* 0000008EH   DATA     BYTE      DAC3H
*SFR* 0000008DH   DATA     BYTE      DAC3L
*SFR* 00000088H   DATA     BYTE      DACGCF0
*SFR* 00000088H.3 DATA     BIT       DACGCF0_D01REFSL
*SFR* 00000088H.2 DATA     BIT       DACGCF0_D1AMEN
*SFR* 00000088H   DATA     BIT       DACGCF0_D1SRC0
*SFR* 00000088H.1 DATA     BIT       DACGCF0_D1SRC1
*SFR* 00000088H.7 DATA     BIT       DACGCF0_D23REFSL
*SFR* 00000088H.6 DATA     BIT       DACGCF0_D3AMEN
*SFR* 00000088H.4 DATA     BIT       DACGCF0_D3SRC0
*SFR* 00000088H.5 DATA     BIT       DACGCF0_D3SRC1
*SFR* 00000098H   DATA     BYTE      DACGCF1
*SFR* 00000098H   DATA     BIT       DACGCF1_D0UDIS
*SFR* 00000098H.1 DATA     BIT       DACGCF1_D1UDIS
*SFR* 00000098H.2 DATA     BIT       DACGCF1_D2UDIS
*SFR* 00000098H.3 DATA     BIT       DACGCF1_D3UDIS
*SFR* 000000A2H   DATA     BYTE      DACGCF2
*SFR* 000000ADH   DATA     BYTE      DERIVID
*SFR* 000000B5H   DATA     BYTE      DEVICEID
      01001334H   CODE     ---       DISP_ClearAll
      010013AEH   CODE     ---       DISP_Init
*SFR* 00000082H   DATA     WORD      DP
*SFR* 00000083H   DATA     BYTE      DPH
*SFR* 00000082H   DATA     BYTE      DPL
      0200002CH   XDATA    ---       east_bits
*SFR* 000000E6H   DATA     BYTE      EIE1
*SFR* 000000F3H   DATA     BYTE      EIE2
*SFR* 000000BBH   DATA     BYTE      EIP1
*SFR* 000000EEH   DATA     BYTE      EIP1H
*SFR* 000000EDH   DATA     BYTE      EIP2
*SFR* 000000F6H   DATA     BYTE      EIP2H
*SFR* 000000E7H   DATA     BYTE      EMI0CN
      01001228H   CODE     ---       enter_DefaultMode_from_RESET
      0100143DH   CODE     ---       EXTINT_0_enter_DefaultMode_from_RESET
*SFR* 000000B7H   DATA     BYTE      FLKEY
LX51 LINKER/LOCATER V4.66.30.0                                                        04/24/2017  21:26:22  PAGE 11


      0100131EH   CODE     ---       GetTickCount
      01001423H   CODE     NEAR LAB  GREEN
*SFR* 000000C7H   DATA     BYTE      HFO0CAL
*SFR* 000000D6H   DATA     BYTE      HFO1CAL
*SFR* 000000EFH   DATA     BYTE      HFOCN
*SFR* 000000FFH   DATA     BYTE      I2C0ADM
*SFR* 000000BAH   DATA     BYTE      I2C0CN0
*SFR* 000000BCH   DATA     BYTE      I2C0DIN
*SFR* 000000BBH   DATA     BYTE      I2C0DOUT
*SFR* 000000ADH   DATA     BYTE      I2C0FCN0
*SFR* 000000ABH   DATA     BYTE      I2C0FCN1
*SFR* 000000F5H   DATA     BYTE      I2C0FCT
*SFR* 000000BDH   DATA     BYTE      I2C0SLAD
*SFR* 000000B9H   DATA     BYTE      I2C0STAT
*SFR* 000000A8H   DATA     BYTE      IE
*SFR* 000000A8H.7 DATA     BIT       IE_EA
*SFR* 000000A8H.4 DATA     BIT       IE_ES0
*SFR* 000000A8H.6 DATA     BIT       IE_ESPI0
*SFR* 000000A8H.1 DATA     BIT       IE_ET0
*SFR* 000000A8H.3 DATA     BIT       IE_ET1
*SFR* 000000A8H.5 DATA     BIT       IE_ET2
*SFR* 000000A8H   DATA     BIT       IE_EX0
*SFR* 000000A8H.2 DATA     BIT       IE_EX1
      01001437H   CODE     ---       INT0_ISR
      01001431H   CODE     ---       INT1_ISR
      0100140EH   CODE     ---       INTERRUPT_0_enter_DefaultMode_from_RESET
*SFR* 000000B8H   DATA     BYTE      IP
*SFR* 000000B8H.4 DATA     BIT       IP_PS0
*SFR* 000000B8H.6 DATA     BIT       IP_PSPI0
*SFR* 000000B8H.1 DATA     BIT       IP_PT0
*SFR* 000000B8H.3 DATA     BIT       IP_PT1
*SFR* 000000B8H.5 DATA     BIT       IP_PT2
*SFR* 000000B8H   DATA     BIT       IP_PX0
*SFR* 000000B8H.2 DATA     BIT       IP_PX1
*SFR* 000000F2H   DATA     BYTE      IPH
*SFR* 000000E4H   DATA     BYTE      IT01CF
      0000000EH   DATA     BYTE      lapcount
      0000000AH   DATA     BYTE      lapnow
      0000001DH   DATA     WORD      LastVcomToggle
*SFR* 00000090H.5 DATA     BIT       LED_BLUE
*SFR* 00000090H.4 DATA     BIT       LED_GREEN
*SFR* 00000090H.6 DATA     BIT       LED_RED
*SFR* 000000B1H   DATA     BYTE      LFO0CN
      02000014H   XDATA    ---       Line
      0100139EH   CODE     ---       main
      00000057H   DATA     DWORD     mV
      01001282H   CODE     ---       NewLap
      0200002AH   XDATA    ---       north_bits
      02000032H   XDATA    ---       northeast_bits
      02000024H   XDATA    ---       northwest_bits
      0100142AH   CODE     NEAR LAB  OFF
*SFR* 00000080H   DATA     BYTE      P0
*SFR* 00000080H   DATA     BIT       P0_B0
*SFR* 00000080H.1 DATA     BIT       P0_B1
*SFR* 00000080H.2 DATA     BIT       P0_B2
*SFR* 00000080H.3 DATA     BIT       P0_B3
*SFR* 00000080H.4 DATA     BIT       P0_B4
*SFR* 00000080H.5 DATA     BIT       P0_B5
*SFR* 00000080H.6 DATA     BIT       P0_B6
*SFR* 00000080H.7 DATA     BIT       P0_B7
*SFR* 000000FEH   DATA     BYTE      P0MASK
*SFR* 000000FDH   DATA     BYTE      P0MAT
LX51 LINKER/LOCATER V4.66.30.0                                                        04/24/2017  21:26:22  PAGE 12


*SFR* 000000F1H   DATA     BYTE      P0MDIN
*SFR* 000000A4H   DATA     BYTE      P0MDOUT
*SFR* 000000D4H   DATA     BYTE      P0SKIP
*SFR* 00000090H   DATA     BYTE      P1
*SFR* 00000090H   DATA     BIT       P1_B0
*SFR* 00000090H.1 DATA     BIT       P1_B1
*SFR* 00000090H.2 DATA     BIT       P1_B2
*SFR* 00000090H.3 DATA     BIT       P1_B3
*SFR* 00000090H.4 DATA     BIT       P1_B4
*SFR* 00000090H.5 DATA     BIT       P1_B5
*SFR* 00000090H.6 DATA     BIT       P1_B6
*SFR* 00000090H.7 DATA     BIT       P1_B7
*SFR* 000000EEH   DATA     BYTE      P1MASK
*SFR* 000000EDH   DATA     BYTE      P1MAT
*SFR* 000000F2H   DATA     BYTE      P1MDIN
*SFR* 000000A5H   DATA     BYTE      P1MDOUT
*SFR* 000000D5H   DATA     BYTE      P1SKIP
*SFR* 000000A0H   DATA     BYTE      P2
*SFR* 000000A0H   DATA     BIT       P2_B0
*SFR* 000000A0H.1 DATA     BIT       P2_B1
*SFR* 000000A0H.2 DATA     BIT       P2_B2
*SFR* 000000A0H.3 DATA     BIT       P2_B3
*SFR* 000000A0H.4 DATA     BIT       P2_B4
*SFR* 000000A0H.5 DATA     BIT       P2_B5
*SFR* 000000A0H.6 DATA     BIT       P2_B6
*SFR* 000000FCH   DATA     BYTE      P2MASK
*SFR* 000000FBH   DATA     BYTE      P2MAT
*SFR* 000000F3H   DATA     BYTE      P2MDIN
*SFR* 000000A6H   DATA     BYTE      P2MDOUT
*SFR* 000000CCH   DATA     BYTE      P2SKIP
*SFR* 000000B0H   DATA     BYTE      P3
*SFR* 000000B0H   DATA     BIT       P3_B0
*SFR* 000000B0H.1 DATA     BIT       P3_B1
*SFR* 000000B0H.2 DATA     BIT       P3_B2
*SFR* 000000B0H.3 DATA     BIT       P3_B3
*SFR* 000000B0H.4 DATA     BIT       P3_B4
*SFR* 000000B0H.7 DATA     BIT       P3_B7
*SFR* 000000F4H   DATA     BYTE      P3MDIN
*SFR* 0000009CH   DATA     BYTE      P3MDOUT
      010013F1H   CODE     ---       PBCFG_0_enter_DefaultMode_from_RESET
*SFR* 000000F9H   DATA     WORD      PCA0
*SFR* 0000009EH   DATA     BYTE      PCA0CENT
*SFR* 0000009CH   DATA     BYTE      PCA0CLR
*SFR* 000000D8H   DATA     BYTE      PCA0CN0
*SFR* 000000D8H   DATA     BIT       PCA0CN0_CCF0
*SFR* 000000D8H.1 DATA     BIT       PCA0CN0_CCF1
*SFR* 000000D8H.2 DATA     BIT       PCA0CN0_CCF2
*SFR* 000000D8H.3 DATA     BIT       PCA0CN0_CCF3
*SFR* 000000D8H.4 DATA     BIT       PCA0CN0_CCF4
*SFR* 000000D8H.5 DATA     BIT       PCA0CN0_CCF5
*SFR* 000000D8H.7 DATA     BIT       PCA0CN0_CF
*SFR* 000000D8H.6 DATA     BIT       PCA0CN0_CR
*SFR* 000000FBH   DATA     WORD      PCA0CP0
*SFR* 000000E9H   DATA     WORD      PCA0CP1
*SFR* 000000EBH   DATA     WORD      PCA0CP2
*SFR* 000000F4H   DATA     WORD      PCA0CP3
*SFR* 00000084H   DATA     WORD      PCA0CP4
*SFR* 000000DDH   DATA     WORD      PCA0CP5
*SFR* 000000FCH   DATA     BYTE      PCA0CPH0
*SFR* 000000EAH   DATA     BYTE      PCA0CPH1
*SFR* 000000ECH   DATA     BYTE      PCA0CPH2
*SFR* 000000F5H   DATA     BYTE      PCA0CPH3
LX51 LINKER/LOCATER V4.66.30.0                                                        04/24/2017  21:26:22  PAGE 13


*SFR* 00000085H   DATA     BYTE      PCA0CPH4
*SFR* 000000DEH   DATA     BYTE      PCA0CPH5
*SFR* 000000FBH   DATA     BYTE      PCA0CPL0
*SFR* 000000E9H   DATA     BYTE      PCA0CPL1
*SFR* 000000EBH   DATA     BYTE      PCA0CPL2
*SFR* 000000F4H   DATA     BYTE      PCA0CPL3
*SFR* 00000084H   DATA     BYTE      PCA0CPL4
*SFR* 000000DDH   DATA     BYTE      PCA0CPL5
*SFR* 000000DAH   DATA     BYTE      PCA0CPM0
*SFR* 000000DBH   DATA     BYTE      PCA0CPM1
*SFR* 000000DCH   DATA     BYTE      PCA0CPM2
*SFR* 000000AEH   DATA     BYTE      PCA0CPM3
*SFR* 000000AFH   DATA     BYTE      PCA0CPM4
*SFR* 000000CCH   DATA     BYTE      PCA0CPM5
*SFR* 000000FAH   DATA     BYTE      PCA0H
*SFR* 000000F9H   DATA     BYTE      PCA0L
*SFR* 000000D9H   DATA     BYTE      PCA0MD
*SFR* 00000096H   DATA     BYTE      PCA0POL
*SFR* 000000F7H   DATA     BYTE      PCA0PWM
*SFR* 00000087H   DATA     BYTE      PCON0
*SFR* 000000CDH   DATA     BYTE      PCON1
*SFR* 000000C1H   DATA     BYTE      PFE0CN
      010013D3H   CODE     ---       PORTS_0_enter_DefaultMode_from_RESET
      010013DDH   CODE     ---       PORTS_1_enter_DefaultMode_from_RESET
      010013E7H   CODE     ---       PORTS_2_enter_DefaultMode_from_RESET
*SFR* 000000A0H   DATA     BYTE      PPAGE_SFR
*SFR* 000000F6H   DATA     BYTE      PRTDRV
*SFR* 0000008FH   DATA     BYTE      PSCTL
*SFR* 000000AAH   DATA     BYTE      PSTAT0
*SFR* 000000D0H   DATA     BYTE      PSW
*SFR* 000000D0H.6 DATA     BIT       PSW_AC
*SFR* 000000D0H.7 DATA     BIT       PSW_CY
*SFR* 000000D0H.5 DATA     BIT       PSW_F0
*SFR* 000000D0H.1 DATA     BIT       PSW_F1
*SFR* 000000D0H.2 DATA     BIT       PSW_OV
*SFR* 000000D0H   DATA     BIT       PSW_PARITY
*SFR* 000000D0H.3 DATA     BIT       PSW_RS0
*SFR* 000000D0H.4 DATA     BIT       PSW_RS1
      01001415H   CODE     NEAR LAB  RED
*SFR* 000000D1H   DATA     BYTE      REF0CN
*SFR* 000000C9H   DATA     BYTE      REG0CN
      01000C0BH   CODE     ---       ResetLap
      00000016H   DATA     BYTE      resetopt
*SFR* 000000B6H   DATA     BYTE      REVID
*SFR* 000000EFH   DATA     BYTE      RSTSRC
      01001441H   CODE     ---       RSTSRC_0_enter_DefaultMode_from_RESET
*SFR* 00000094H   DATA     BYTE      SBCON1
*SFR* 00000096H   DATA     BYTE      SBRLH1
*SFR* 00000095H   DATA     BYTE      SBRLL1
*SFR* 00000099H   DATA     BYTE      SBUF0
*SFR* 00000092H   DATA     BYTE      SBUF1
*SFR* 00000098H   DATA     BYTE      SCON0
*SFR* 00000098H.5 DATA     BIT       SCON0_MCE
*SFR* 00000098H.2 DATA     BIT       SCON0_RB8
*SFR* 00000098H.4 DATA     BIT       SCON0_REN
*SFR* 00000098H   DATA     BIT       SCON0_RI
*SFR* 00000098H.7 DATA     BIT       SCON0_SMODE
*SFR* 00000098H.3 DATA     BIT       SCON0_TB8
*SFR* 00000098H.1 DATA     BIT       SCON0_TI
*SFR* 000000C8H   DATA     BYTE      SCON1
*SFR* 000000C8H.7 DATA     BIT       SCON1_OVR
*SFR* 000000C8H.6 DATA     BIT       SCON1_PERR
LX51 LINKER/LOCATER V4.66.30.0                                                        04/24/2017  21:26:22  PAGE 14


*SFR* 000000C8H.2 DATA     BIT       SCON1_RBX
*SFR* 000000C8H.4 DATA     BIT       SCON1_REN
*SFR* 000000C8H   DATA     BIT       SCON1_RI
*SFR* 000000C8H.3 DATA     BIT       SCON1_TBX
*SFR* 000000C8H.1 DATA     BIT       SCON1_TI
*SFR* 000000A7H   DATA     BYTE      SFRPAGE
*SFR* 000000BCH   DATA     BYTE      SFRPGCN
*SFR* 000000D7H   DATA     BYTE      SFRSTACK
*SFR* 000000D6H   DATA     BYTE      SMB0ADM
*SFR* 000000D7H   DATA     BYTE      SMB0ADR
*SFR* 000000C1H   DATA     BYTE      SMB0CF
*SFR* 000000C0H   DATA     BYTE      SMB0CN0
*SFR* 000000C0H.1 DATA     BIT       SMB0CN0_ACK
*SFR* 000000C0H.3 DATA     BIT       SMB0CN0_ACKRQ
*SFR* 000000C0H.2 DATA     BIT       SMB0CN0_ARBLOST
*SFR* 000000C0H.7 DATA     BIT       SMB0CN0_MASTER
*SFR* 000000C0H   DATA     BIT       SMB0CN0_SI
*SFR* 000000C0H.5 DATA     BIT       SMB0CN0_STA
*SFR* 000000C0H.4 DATA     BIT       SMB0CN0_STO
*SFR* 000000C0H.6 DATA     BIT       SMB0CN0_TXMODE
*SFR* 000000C2H   DATA     BYTE      SMB0DAT
*SFR* 000000C3H   DATA     BYTE      SMB0FCN0
*SFR* 000000C4H   DATA     BYTE      SMB0FCN1
*SFR* 000000EFH   DATA     BYTE      SMB0FCT
*SFR* 000000C5H   DATA     BYTE      SMB0RXLN
*SFR* 000000ACH   DATA     BYTE      SMB0TC
*SFR* 00000093H   DATA     BYTE      SMOD1
      0200002EH   XDATA    ---       south_bits
      02000034H   XDATA    ---       southeast_bits
      02000026H   XDATA    ---       southwest_bits
*SFR* 00000081H   DATA     BYTE      SP
*DEL*:00000000H   CODE     ---       SPI0_abortTransfer
*DEL*:00000000H   CODE     ---       SPI0_bytesRemaining
*DEL*:00000000H   CODE     ---       SPI0_getIntFlags
*DEL*:00000000H   CODE     ---       SPI0_getRxFifoCount
*DEL*:00000000H   CODE     ---       SPI0_getTxFifoCount
*DEL*:00000000H   CODE     ---       SPI0_isBusy
*DEL*:00000000H   CODE     ---       SPI0_isFifoRxReq
*DEL*:00000000H   CODE     ---       SPI0_isFifoTxReq
      01000D70H   CODE     ---       SPI0_ISR
*DEL*:00000000H   CODE     ---       SPI0_isRxEmpty
*DEL*:00000000H   CODE     ---       SPI0_isShiftEmpty
*DEL*:00000000H   CODE     ---       SPI0_isSlaveSelected
*DEL*:00000000H   CODE     ---       SPI0_isTxFull
*DEL*:00000000H   CODE     ---       SPI0_pollReadByte
*DEL*:00000000H   CODE     ---       SPI0_readByte
*DEL*:00000000H   CODE     ---       SPI0_reset
      01001348H   CODE     ---       SPI0_transferCompleteCb
*SFR* 000000A1H   DATA     BYTE      SPI0CFG
*SFR* 000000A2H   DATA     BYTE      SPI0CKR
*SFR* 000000F8H   DATA     BYTE      SPI0CN0
*SFR* 000000F8H.5 DATA     BIT       SPI0CN0_MODF
*SFR* 000000F8H.2 DATA     BIT       SPI0CN0_NSSMD0
*SFR* 000000F8H.3 DATA     BIT       SPI0CN0_NSSMD1
*SFR* 000000F8H.4 DATA     BIT       SPI0CN0_RXOVRN
*SFR* 000000F8H   DATA     BIT       SPI0CN0_SPIEN
*SFR* 000000F8H.7 DATA     BIT       SPI0CN0_SPIF
*SFR* 000000F8H.1 DATA     BIT       SPI0CN0_TXNF
*SFR* 000000F8H.6 DATA     BIT       SPI0CN0_WCOL
*SFR* 000000A3H   DATA     BYTE      SPI0DAT
*SFR* 0000009AH   DATA     BYTE      SPI0FCN0
*SFR* 0000009BH   DATA     BYTE      SPI0FCN1
LX51 LINKER/LOCATER V4.66.30.0                                                        04/24/2017  21:26:22  PAGE 15


*SFR* 000000F7H   DATA     BYTE      SPI0FCT
*SFR* 000000DFH   DATA     BYTE      SPI0PCF
      010013BCH   CODE     ---       SPI_0_enter_DefaultMode_from_RESET
      010011F7H   CODE     NEAR LAB  START
*SFR* 00000088H   DATA     BYTE      TCON
*SFR* 00000088H.1 DATA     BIT       TCON_IE0
*SFR* 00000088H.3 DATA     BIT       TCON_IE1
*SFR* 00000088H   DATA     BIT       TCON_IT0
*SFR* 00000088H.2 DATA     BIT       TCON_IT1
*SFR* 00000088H.5 DATA     BIT       TCON_TF0
*SFR* 00000088H.7 DATA     BIT       TCON_TF1
*SFR* 00000088H.4 DATA     BIT       TCON_TR0
*SFR* 00000088H.6 DATA     BIT       TCON_TR1
*SFR* 0000008CH   DATA     BYTE      TH0
*SFR* 0000008DH   DATA     BYTE      TH1
      0100138EH   CODE     ---       TIMER01_0_enter_DefaultMode_from_RESET
      010012C5H   CODE     ---       TIMER0_ISR
      01001305H   CODE     ---       TIMER16_3_enter_DefaultMode_from_RESET
*DEL*:00000000H   CODE     ---       TIMER16_4_enter_DefaultMode_from_RESET
      01000FF6H   CODE     ---       TIMER2_ISR
      0100137EH   CODE     ---       TIMER3_ISR
      010013FBH   CODE     ---       TIMER_SETUP_0_enter_DefaultMode_from_RESET
      0000000FH   DATA     ---       timeStr
*SFR* 0000008AH   DATA     BYTE      TL0
*SFR* 0000008BH   DATA     BYTE      TL1
*SFR* 00000089H   DATA     BYTE      TMOD
*SFR* 000000CEH   DATA     WORD      TMR2
*SFR* 000000C8H   DATA     BYTE      TMR2CN0
*SFR* 000000C8H.3 DATA     BIT       TMR2CN0_T2SPLIT
*SFR* 000000C8H   DATA     BIT       TMR2CN0_T2XCLK0
*SFR* 000000C8H.1 DATA     BIT       TMR2CN0_T2XCLK1
*SFR* 000000C8H.4 DATA     BIT       TMR2CN0_TF2CEN
*SFR* 000000C8H.7 DATA     BIT       TMR2CN0_TF2H
*SFR* 000000C8H.6 DATA     BIT       TMR2CN0_TF2L
*SFR* 000000C8H.5 DATA     BIT       TMR2CN0_TF2LEN
*SFR* 000000C8H.2 DATA     BIT       TMR2CN0_TR2
*SFR* 000000FDH   DATA     BYTE      TMR2CN1
*SFR* 000000CFH   DATA     BYTE      TMR2H
*SFR* 000000CEH   DATA     BYTE      TMR2L
*SFR* 000000CAH   DATA     WORD      TMR2RL
*SFR* 000000CBH   DATA     BYTE      TMR2RLH
*SFR* 000000CAH   DATA     BYTE      TMR2RLL
*SFR* 00000094H   DATA     WORD      TMR3
*SFR* 00000091H   DATA     BYTE      TMR3CN0
*SFR* 000000FEH   DATA     BYTE      TMR3CN1
*SFR* 00000095H   DATA     BYTE      TMR3H
*SFR* 00000094H   DATA     BYTE      TMR3L
*SFR* 00000092H   DATA     WORD      TMR3RL
*SFR* 00000093H   DATA     BYTE      TMR3RLH
*SFR* 00000092H   DATA     BYTE      TMR3RLL
*SFR* 000000A4H   DATA     WORD      TMR4
*SFR* 00000098H   DATA     BYTE      TMR4CN0
*SFR* 00000098H.3 DATA     BIT       TMR4CN0_T4SPLIT
*SFR* 00000098H   DATA     BIT       TMR4CN0_T4XCLK0
*SFR* 00000098H.1 DATA     BIT       TMR4CN0_T4XCLK1
*SFR* 00000098H.4 DATA     BIT       TMR4CN0_TF4CEN
*SFR* 00000098H.7 DATA     BIT       TMR4CN0_TF4H
*SFR* 00000098H.6 DATA     BIT       TMR4CN0_TF4L
*SFR* 00000098H.5 DATA     BIT       TMR4CN0_TF4LEN
*SFR* 00000098H.2 DATA     BIT       TMR4CN0_TR4
*SFR* 000000FFH   DATA     BYTE      TMR4CN1
*SFR* 000000A5H   DATA     BYTE      TMR4H
LX51 LINKER/LOCATER V4.66.30.0                                                        04/24/2017  21:26:22  PAGE 16


*SFR* 000000A4H   DATA     BYTE      TMR4L
*SFR* 000000A2H   DATA     WORD      TMR4RL
*SFR* 000000A3H   DATA     BYTE      TMR4RLH
*SFR* 000000A2H   DATA     BYTE      TMR4RLL
*SFR* 000000D4H   DATA     WORD      TMR5
*SFR* 000000C0H   DATA     BYTE      TMR5CN0
*SFR* 000000C0H.3 DATA     BIT       TMR5CN0_T5SPLIT
*SFR* 000000C0H   DATA     BIT       TMR5CN0_T5XCLK0
*SFR* 000000C0H.1 DATA     BIT       TMR5CN0_T5XCLK1
*SFR* 000000C0H.4 DATA     BIT       TMR5CN0_TF5CEN
*SFR* 000000C0H.7 DATA     BIT       TMR5CN0_TF5H
*SFR* 000000C0H.6 DATA     BIT       TMR5CN0_TF5L
*SFR* 000000C0H.5 DATA     BIT       TMR5CN0_TF5LEN
*SFR* 000000C0H.2 DATA     BIT       TMR5CN0_TR5
*SFR* 000000F1H   DATA     BYTE      TMR5CN1
*SFR* 000000D5H   DATA     BYTE      TMR5H
*SFR* 000000D4H   DATA     BYTE      TMR5L
*SFR* 000000D2H   DATA     WORD      TMR5RL
*SFR* 000000D3H   DATA     BYTE      TMR5RLH
*SFR* 000000D2H   DATA     BYTE      TMR5RLL
*SFR* 000000D9H   DATA     BYTE      UART0PCF
*SFR* 0000009DH   DATA     BYTE      UART1FCN0
*SFR* 000000D8H   DATA     BYTE      UART1FCN1
*SFR* 000000D8H.3 DATA     BIT       UART1FCN1_RFRQ
*SFR* 000000D8H   DATA     BIT       UART1FCN1_RIE
*SFR* 000000D8H.1 DATA     BIT       UART1FCN1_RXTO0
*SFR* 000000D8H.2 DATA     BIT       UART1FCN1_RXTO1
*SFR* 000000D8H.7 DATA     BIT       UART1FCN1_TFRQ
*SFR* 000000D8H.4 DATA     BIT       UART1FCN1_TIE
*SFR* 000000D8H.5 DATA     BIT       UART1FCN1_TXHOLD
*SFR* 000000D8H.6 DATA     BIT       UART1FCN1_TXNF
*SFR* 000000FAH   DATA     BYTE      UART1FCT
*SFR* 0000009EH   DATA     BYTE      UART1LIN
*SFR* 000000DAH   DATA     BYTE      UART1PCF
      0000000BH   DATA     BYTE      updateAdcInput
*SFR* 000000FFH   DATA     BYTE      VDM0CN
      010010A7H   CODE     ---       Voltmeter_main
      010013C9H   CODE     ---       WDT_0_enter_DefaultMode_from_RESET
*SFR* 00000097H   DATA     BYTE      WDTCN
      02000030H   XDATA    ---       west_bits
*SFR* 000000E1H   DATA     BYTE      XBR0
*SFR* 000000E2H   DATA     BYTE      XBR1
*SFR* 000000E3H   DATA     BYTE      XBR2
*SFR* 00000086H   DATA     BYTE      XOSC0CN
      0100141CH   CODE     NEAR LAB  YELLOW



SYMBOL TABLE OF MODULE:  EFM8BB3_VOLTMETER_3_2.OMF.CRBUILD (JOYSTICK)

      VALUE       REP       CLASS    TYPE      SYMBOL NAME
      ====================================================
      ---         MODULE    ---      ---       JOYSTICK
      000000A2H   SFRSYM    DATA     BYTE      SPI0CKR
      00000080H   SFRSYM    DATA     BYTE      P0
      000000C8H.6 SFRSYM    DATA     BIT       SCON1_PERR
      000000D0H.2 SFRSYM    DATA     BIT       PSW_OV
      00000086H   SFRSYM    DATA     BYTE      XOSC0CN
      00000090H   SFRSYM    DATA     BYTE      P1
      000000F8H.1 SFRSYM    DATA     BIT       SPI0CN0_TXNF
      00000097H   SFRSYM    DATA     BYTE      WDTCN
      000000A0H   SFRSYM    DATA     BYTE      P2
LX51 LINKER/LOCATER V4.66.30.0                                                        04/24/2017  21:26:22  PAGE 17


      000000B0H   SFRSYM    DATA     BYTE      P3
      000000C0H.7 SFRSYM    DATA     BIT       SMB0CN0_MASTER
      000000F9H   SFRSYM    DATA     WORD      PCA0
      000000E6H   SFRSYM    DATA     BYTE      EIE1
      000000C0H.1 SFRSYM    DATA     BIT       SMB0CN0_ACK
      000000E8H.1 SFRSYM    DATA     BIT       CLIF0_C0RIF
      000000F3H   SFRSYM    DATA     BYTE      EIE2
      000000E8H.3 SFRSYM    DATA     BIT       CLIF0_C1RIF
      000000E8H.5 SFRSYM    DATA     BIT       CLIF0_C2RIF
      0000008FH   SFRSYM    DATA     BYTE      PSCTL
      00000080H.2 SFRSYM    DATA     BIT       BSP_PB0
      000000E8H.7 SFRSYM    DATA     BIT       CLIF0_C3RIF
      000000E4H   SFRSYM    DATA     BYTE      IT01CF
      00000080H.3 SFRSYM    DATA     BIT       BSP_PB1
      000000C0H.6 SFRSYM    DATA     BIT       SMB0CN0_TXMODE
      000000ADH   SFRSYM    DATA     BYTE      DERIVID
      000000A7H   SFRSYM    DATA     BYTE      SFRPAGE
      000000A4H   SFRSYM    DATA     BYTE      P0MDOUT
      000000A5H   SFRSYM    DATA     BYTE      P1MDOUT
      000000E8H.5 SFRSYM    DATA     BIT       ADC0CN0_ADINT
      000000CBH   SFRSYM    DATA     BYTE      TMR2RLH
      000000A6H   SFRSYM    DATA     BYTE      P2MDOUT
      000000A8H   SFRSYM    DATA     BYTE      IE
      00000093H   SFRSYM    DATA     BYTE      TMR3RLH
      0000009CH   SFRSYM    DATA     BYTE      P3MDOUT
      000000A3H   SFRSYM    DATA     BYTE      TMR4RLH
      000000BBH   SFRSYM    DATA     BYTE      EIP1
      000000D3H   SFRSYM    DATA     BYTE      TMR5RLH
      000000EDH   SFRSYM    DATA     BYTE      EIP2
      00000098H.2 SFRSYM    DATA     BIT       SCON0_RB8
      000000CAH   SFRSYM    DATA     BYTE      TMR2RLL
      000000FCH   SFRSYM    DATA     BYTE      PCA0CPH0
      00000092H   SFRSYM    DATA     BYTE      TMR3RLL
      000000EAH   SFRSYM    DATA     BYTE      PCA0CPH1
      00000098H.3 SFRSYM    DATA     BIT       SCON0_TB8
      000000F0H   SFRSYM    DATA     BIT       B_B0
      00000082H   SFRSYM    DATA     WORD      DP
      000000A2H   SFRSYM    DATA     BYTE      TMR4RLL
      000000ECH   SFRSYM    DATA     BYTE      PCA0CPH2
      000000F0H.1 SFRSYM    DATA     BIT       B_B1
      000000C3H   SFRSYM    DATA     WORD      ADC0GT
      000000D2H   SFRSYM    DATA     BYTE      TMR5RLL
      000000F5H   SFRSYM    DATA     BYTE      PCA0CPH3
      000000BDH   SFRSYM    DATA     BYTE      I2C0SLAD
      000000D8H.3 SFRSYM    DATA     BIT       UART1FCN1_RFRQ
      000000F0H.2 SFRSYM    DATA     BIT       B_B2
      000000BCH   SFRSYM    DATA     BYTE      SFRPGCN
      000000FBH   SFRSYM    DATA     BYTE      PCA0CPL0
      00000085H   SFRSYM    DATA     BYTE      PCA0CPH4
      000000F0H.3 SFRSYM    DATA     BIT       B_B3
      000000D9H   SFRSYM    DATA     BYTE      PCA0MD
      000000DAH   SFRSYM    DATA     BYTE      PCA0CPM0
      000000E9H   SFRSYM    DATA     BYTE      PCA0CPL1
      000000DEH   SFRSYM    DATA     BYTE      PCA0CPH5
      000000D8H.7 SFRSYM    DATA     BIT       UART1FCN1_TFRQ
      000000F0H.4 SFRSYM    DATA     BIT       B_B4
      000000DBH   SFRSYM    DATA     BYTE      PCA0CPM1
      000000EBH   SFRSYM    DATA     BYTE      PCA0CPL2
      000000A1H   SFRSYM    DATA     BYTE      ADC0ASCF
      000000B6H   SFRSYM    DATA     BYTE      ADC0ASAH
      000000F0H.5 SFRSYM    DATA     BIT       B_B5
      000000E8H.6 SFRSYM    DATA     BIT       ADC0CN0_IPOEN
LX51 LINKER/LOCATER V4.66.30.0                                                        04/24/2017  21:26:22  PAGE 18


      000000E8H   SFRSYM    DATA     BIT       ADC0CN0_TEMPE
      000000DCH   SFRSYM    DATA     BYTE      PCA0CPM2
      000000F4H   SFRSYM    DATA     BYTE      PCA0CPL3
      000000B8H   SFRSYM    DATA     BYTE      IP
      000000F0H.6 SFRSYM    DATA     BIT       B_B6
      000000C5H   SFRSYM    DATA     WORD      ADC0LT
      000000AEH   SFRSYM    DATA     BYTE      PCA0CPM3
      00000084H   SFRSYM    DATA     BYTE      PCA0CPL4
      000000D8H.6 SFRSYM    DATA     BIT       UART1FCN1_TXNF
      00000098H.5 SFRSYM    DATA     BIT       SCON0_MCE
      000000F0H.7 SFRSYM    DATA     BIT       B_B7
      000000AFH   SFRSYM    DATA     BYTE      PCA0CPM4
      000000DDH   SFRSYM    DATA     BYTE      PCA0CPL5
      000000C3H   SFRSYM    DATA     BYTE      SMB0FCN0
      000000CCH   SFRSYM    DATA     BYTE      PCA0CPM5
      000000B5H   SFRSYM    DATA     BYTE      ADC0ASAL
      000000E1H   SFRSYM    DATA     BYTE      XBR0
      000000C4H   SFRSYM    DATA     BYTE      SMB0FCN1
      000000C1H   SFRSYM    DATA     BYTE      SMB0CF
      000000E2H   SFRSYM    DATA     BYTE      XBR1
      000000C1H   SFRSYM    DATA     BYTE      PFE0CN
      000000E7H   SFRSYM    DATA     BYTE      EMI0CN
      000000C0H.5 SFRSYM    DATA     BIT       SMB0CN0_STA
      000000E3H   SFRSYM    DATA     BYTE      XBR2
      000000B1H   SFRSYM    DATA     BYTE      CLU0CF
      000000BBH   SFRSYM    DATA     BYTE      ADC0MX
      000000E0H   SFRSYM    DATA     BIT       ACC_ACC0
      000000D1H   SFRSYM    DATA     BYTE      REF0CN
      000000B3H   SFRSYM    DATA     BYTE      CLU1CF
      0000008EH   SFRSYM    DATA     BYTE      CKCON0
      000000E0H.1 SFRSYM    DATA     BIT       ACC_ACC1
      000000C9H   SFRSYM    DATA     BYTE      REG0CN
      000000CAH   SFRSYM    DATA     BYTE      CRC0IN
      000000B6H   SFRSYM    DATA     BYTE      CLU2CF
      000000A6H   SFRSYM    DATA     BYTE      CKCON1
      000000C8H.2 SFRSYM    DATA     BIT       TMR2CN0_TR2
      000000E0H.2 SFRSYM    DATA     BIT       ACC_ACC2
      000000BFH   SFRSYM    DATA     BYTE      CLU3CF
      000000E0H.3 SFRSYM    DATA     BIT       ACC_ACC3
      00000081H   SFRSYM    DATA     BYTE      SP
      0000009DH   SFRSYM    DATA     BYTE      CMP0MD
      000000E0H.4 SFRSYM    DATA     BIT       ACC_ACC4
      000000B1H   SFRSYM    DATA     BYTE      LFO0CN
      000000ABH   SFRSYM    DATA     BYTE      CMP1MD
      000000D8H   SFRSYM    DATA     BIT       PCA0CN0_CCF0
      000000E0H.5 SFRSYM    DATA     BIT       ACC_ACC5
      00000098H.2 SFRSYM    DATA     BIT       TMR4CN0_TR4
      000000D8H.1 SFRSYM    DATA     BIT       PCA0CN0_CCF1
      000000E0H.6 SFRSYM    DATA     BIT       ACC_ACC6
      000000CEH   SFRSYM    DATA     WORD      TMR2
      0000009AH   SFRSYM    DATA     BYTE      SPI0FCN0
      000000C7H   SFRSYM    DATA     BYTE      ADC0ASCT
      000000D8H.2 SFRSYM    DATA     BIT       PCA0CN0_CCF2
      000000E0H.7 SFRSYM    DATA     BIT       ACC_ACC7
      00000094H   SFRSYM    DATA     WORD      TMR3
      0000009BH   SFRSYM    DATA     BYTE      SPI0FCN1
      000000C0H.2 SFRSYM    DATA     BIT       TMR5CN0_TR5
      000000D8H.3 SFRSYM    DATA     BIT       PCA0CN0_CCF3
      000000A4H   SFRSYM    DATA     WORD      TMR4
      00000094H   SFRSYM    DATA     BYTE      SBCON1
      000000D8H.4 SFRSYM    DATA     BIT       PCA0CN0_CCF4
      000000D4H   SFRSYM    DATA     WORD      TMR5
LX51 LINKER/LOCATER V4.66.30.0                                                        04/24/2017  21:26:22  PAGE 19


      000000C0H.3 SFRSYM    DATA     BIT       SMB0CN0_ACKRQ
      000000D8H.5 SFRSYM    DATA     BIT       PCA0CN0_CCF5
      000000FFH   SFRSYM    DATA     BYTE      VDM0CN
      000000F1H   SFRSYM    DATA     BYTE      P0MDIN
      000000AFH   SFRSYM    DATA     BYTE      CLU0FN
      00000098H.4 SFRSYM    DATA     BIT       SCON0_REN
      000000ACH   SFRSYM    DATA     BYTE      SMB0TC
      000000F2H   SFRSYM    DATA     BYTE      P1MDIN
      000000B2H   SFRSYM    DATA     BYTE      CLU1FN
      000000C8H.4 SFRSYM    DATA     BIT       SCON1_REN
      000000F3H   SFRSYM    DATA     BYTE      P2MDIN
      000000B5H   SFRSYM    DATA     BYTE      CLU2FN
      000000C0H.4 SFRSYM    DATA     BIT       SMB0CN0_STO
      000000F4H   SFRSYM    DATA     BYTE      P3MDIN
      000000B9H   SFRSYM    DATA     BYTE      I2C0STAT
      000000BBH   SFRSYM    DATA     BYTE      I2C0DOUT
      000000BEH   SFRSYM    DATA     BYTE      CLU3FN
      00000096H   SFRSYM    DATA     BYTE      SBRLH1
      000000FEH   SFRSYM    DATA     BYTE      P0MASK
      000000D8H.5 SFRSYM    DATA     BIT       UART1FCN1_TXHOLD
      000000EEH   SFRSYM    DATA     BYTE      P1MASK
      000000FCH   SFRSYM    DATA     BYTE      P2MASK
      000000D0H.3 SFRSYM    DATA     BIT       PSW_RS0
      000000D8H.7 SFRSYM    DATA     BIT       PCA0CN0_CF
      0000009EH   SFRSYM    DATA     BYTE      PCA0CENT
      000000BAH   SFRSYM    DATA     BYTE      I2C0CN0
      000000D2H   SFRSYM    DATA     BYTE      CRC0ST
      000000F8H.4 SFRSYM    DATA     BIT       SPI0CN0_RXOVRN
      000000D0H.4 SFRSYM    DATA     BIT       PSW_RS1
      00000095H   SFRSYM    DATA     BYTE      SBRLL1
      000000C8H.2 SFRSYM    DATA     BIT       SCON1_RBX
      00000091H   SFRSYM    DATA     BYTE      DAC0CF0
      000000BCH   SFRSYM    DATA     BYTE      ADC0CF0
      000000C8H   SFRSYM    DATA     BIT       TMR2CN0_T2XCLK0
      00000093H   SFRSYM    DATA     BYTE      DAC1CF0
      00000092H   SFRSYM    DATA     BYTE      DAC0CF1
      000000B9H   SFRSYM    DATA     BYTE      ADC0CF1
      000000C8H.1 SFRSYM    DATA     BIT       TMR2CN0_T2XCLK1
      000000C8H.3 SFRSYM    DATA     BIT       SCON1_TBX
      000000E8H.7 SFRSYM    DATA     BIT       ADC0CN0_ADEN
      00000089H   SFRSYM    DATA     BYTE      TMOD
      00000088H   SFRSYM    DATA     BYTE      TCON
      00000095H   SFRSYM    DATA     BYTE      DAC2CF0
      00000094H   SFRSYM    DATA     BYTE      DAC1CF1
      000000DFH   SFRSYM    DATA     BYTE      ADC0CF2
      0000009AH   SFRSYM    DATA     BYTE      DAC3CF0
      00000096H   SFRSYM    DATA     BYTE      DAC2CF1
      000000CFH   SFRSYM    DATA     BYTE      CRC0FLIP
      000000D0H   SFRSYM    DATA     BIT       PSW_PARITY
      000000A8H.4 SFRSYM    DATA     BIT       IE_ES0
      0000009CH   SFRSYM    DATA     BYTE      DAC3CF1
      0000009FH   SFRSYM    DATA     BYTE      CMP0MX
      00000098H   SFRSYM    DATA     BIT       TMR4CN0_T4XCLK0
      000000A8H.1 SFRSYM    DATA     BIT       IE_ET0
      000000AAH   SFRSYM    DATA     BYTE      CMP1MX
      00000098H.1 SFRSYM    DATA     BIT       TMR4CN0_T4XCLK1
      000000A8H.3 SFRSYM    DATA     BIT       IE_ET1
      000000D4H   SFRSYM    DATA     BYTE      P0SKIP
      000000D1H   SFRSYM    DATA     BYTE      CLOUT0
      00000090H.7 SFRSYM    DATA     BIT       BSP_JOYSTICK
      000000D8H   SFRSYM    DATA     BIT       UART1FCN1_RIE
      000000C0H   SFRSYM    DATA     BIT       TMR5CN0_T5XCLK0
LX51 LINKER/LOCATER V4.66.30.0                                                        04/24/2017  21:26:22  PAGE 20


      000000A8H.5 SFRSYM    DATA     BIT       IE_ET2
      00000088H   SFRSYM    DATA     BIT       DACGCF0_D1SRC0
      000000D5H   SFRSYM    DATA     BYTE      P1SKIP
      000000C0H.1 SFRSYM    DATA     BIT       TMR5CN0_T5XCLK1
      00000088H.1 SFRSYM    DATA     BIT       DACGCF0_D1SRC1
      000000CCH   SFRSYM    DATA     BYTE      P2SKIP
      00000084H   SFRSYM    DATA     BYTE      CLU0MX
      000000E8H   SFRSYM    DATA     BYTE      ADC0CN0
      000000D8H.4 SFRSYM    DATA     BIT       UART1FCN1_TIE
      000000A8H   SFRSYM    DATA     BIT       IE_EX0
      00000088H.4 SFRSYM    DATA     BIT       DACGCF0_D3SRC0
      00000085H   SFRSYM    DATA     BYTE      CLU1MX
      000000B2H   SFRSYM    DATA     BYTE      ADC0CN1
      000000D8H.6 SFRSYM    DATA     BIT       PCA0CN0_CR
      000000A8H.2 SFRSYM    DATA     BIT       IE_EX1
      00000088H.5 SFRSYM    DATA     BIT       DACGCF0_D3SRC1
      00000091H   SFRSYM    DATA     BYTE      CLU2MX
      000000B3H   SFRSYM    DATA     BYTE      ADC0CN2
      00000090H.5 SFRSYM    DATA     BIT       BSP_LED_B
      000000C8H.7 SFRSYM    DATA     BIT       SCON1_OVR
      000000AAH   SFRSYM    DATA     BYTE      PSTAT0
      000000AEH   SFRSYM    DATA     BYTE      CLU3MX
      000000A0H.2 SFRSYM    DATA     BIT       BSP_BC_EN
      00000098H.7 SFRSYM    DATA     BIT       SCON0_SMODE
      000000B5H   SFRSYM    DATA     BYTE      DEVICEID
      000000A9H   SFRSYM    DATA     BYTE      CLKSEL
      000000F8H   SFRSYM    DATA     BIT       SPI0CN0_SPIEN
      00000085H   SFRSYM    DATA     BYTE      DAC0H
      000000F0H   SFRSYM    DATA     BYTE      B
      000000BEH   SFRSYM    DATA     BYTE      ADC0H
      000000FFH   SFRSYM    DATA     BYTE      I2C0ADM
      0000008AH   SFRSYM    DATA     BYTE      DAC1H
      00000090H.4 SFRSYM    DATA     BIT       BSP_LED_G
      00000088H.2 SFRSYM    DATA     BIT       DACGCF0_D1AMEN
      0000008CH   SFRSYM    DATA     BYTE      DAC2H
      0000008EH   SFRSYM    DATA     BYTE      DAC3H
      00000088H.6 SFRSYM    DATA     BIT       DACGCF0_D3AMEN
      000000CAH   SFRSYM    DATA     WORD      TMR2RL
      00000084H   SFRSYM    DATA     BYTE      DAC0L
      000000BDH   SFRSYM    DATA     BYTE      ADC0L
      00000092H   SFRSYM    DATA     WORD      TMR3RL
      00000089H   SFRSYM    DATA     BYTE      DAC1L
      000000A2H   SFRSYM    DATA     WORD      TMR4RL
      000000D8H   SFRSYM    DATA     BYTE      PCA0CN0
      0000008BH   SFRSYM    DATA     BYTE      DAC2L
      000000E0H   SFRSYM    DATA     BYTE      ACC
      000000D2H   SFRSYM    DATA     WORD      TMR5RL
      000000D9H   SFRSYM    DATA     BYTE      UART0PCF
      0000008DH   SFRSYM    DATA     BYTE      DAC3L
      000000FBH   SFRSYM    DATA     WORD      PCA0CP0
      000000DAH   SFRSYM    DATA     BYTE      UART1PCF
      000000E9H   SFRSYM    DATA     WORD      PCA0CP1
      00000088H   SFRSYM    DATA     BYTE      DACGCF0
      000000EBH   SFRSYM    DATA     WORD      PCA0CP2
      000000BCH   SFRSYM    DATA     BYTE      I2C0DIN
      00000098H   SFRSYM    DATA     BYTE      DACGCF1
      000000CEH   SFRSYM    DATA     BYTE      CRC0CN0
      000000F4H   SFRSYM    DATA     WORD      PCA0CP3
      0000008CH   SFRSYM    DATA     BYTE      TH0
      000000A2H   SFRSYM    DATA     BYTE      DACGCF2
      00000086H   SFRSYM    DATA     BYTE      CRC0CN1
      000000B8H.4 SFRSYM    DATA     BIT       IP_PS0
LX51 LINKER/LOCATER V4.66.30.0                                                        04/24/2017  21:26:22  PAGE 21


      00000084H   SFRSYM    DATA     WORD      PCA0CP4
      000000FAH   SFRSYM    DATA     BYTE      UART1FCT
      0000008DH   SFRSYM    DATA     BYTE      TH1
      000000FAH   SFRSYM    DATA     BYTE      PCA0H
      000000F5H   SFRSYM    DATA     BYTE      I2C0FCT
      00000090H.6 SFRSYM    DATA     BIT       BSP_LED_R
      000000B8H.1 SFRSYM    DATA     BIT       IP_PT0
      000000DDH   SFRSYM    DATA     WORD      PCA0CP5
      000000C7H   SFRSYM    DATA     BYTE      CLIE0
      000000B8H.3 SFRSYM    DATA     BIT       IP_PT1
      00000088H.3 SFRSYM    DATA     BIT       DACGCF0_D01REFSL
      000000B5H   SFRSYM    DATA     WORD      ADC0ASA
      000000E8H   SFRSYM    DATA     BYTE      CLIF0
      000000C0H.2 SFRSYM    DATA     BIT       SMB0CN0_ARBLOST
      000000B8H.5 SFRSYM    DATA     BIT       IP_PT2
      0000008AH   SFRSYM    DATA     BYTE      TL0
      000000D0H.5 SFRSYM    DATA     BIT       PSW_F0
      000000A8H.6 SFRSYM    DATA     BIT       IE_ESPI0
      0000008BH   SFRSYM    DATA     BYTE      TL1
      000000F9H   SFRSYM    DATA     BYTE      PCA0L
      000000C0H   SFRSYM    DATA     BIT       SMB0CN0_SI
      000000D0H.1 SFRSYM    DATA     BIT       PSW_F1
      00000080H   SFRSYM    DATA     BIT       P0_B0
      000000B8H   SFRSYM    DATA     BIT       IP_PX0
      00000090H   SFRSYM    DATA     BIT       P1_B0
      00000080H.1 SFRSYM    DATA     BIT       P0_B1
      000000B8H.2 SFRSYM    DATA     BIT       IP_PX1
      00000088H.7 SFRSYM    DATA     BIT       DACGCF0_D23REFSL
      0000009EH   SFRSYM    DATA     BYTE      UART1LIN
      0000009BH   SFRSYM    DATA     BYTE      CMP0CN0
      000000C6H   SFRSYM    DATA     BYTE      CLEN0
      00000088H.1 SFRSYM    DATA     BIT       TCON_IE0
      000000A0H   SFRSYM    DATA     BIT       P2_B0
      00000090H.1 SFRSYM    DATA     BIT       P1_B1
      00000080H.2 SFRSYM    DATA     BIT       P0_B2
      000000BFH   SFRSYM    DATA     BYTE      CMP1CN0
      00000099H   SFRSYM    DATA     BYTE      CMP0CN1
      00000088H.3 SFRSYM    DATA     BIT       TCON_IE1
      000000B0H   SFRSYM    DATA     BIT       P3_B0
      000000A0H.1 SFRSYM    DATA     BIT       P2_B1
      00000090H.2 SFRSYM    DATA     BIT       P1_B2
      00000080H.3 SFRSYM    DATA     BIT       P0_B3
      000000C0H   SFRSYM    DATA     BYTE      SMB0CN0
      000000ACH   SFRSYM    DATA     BYTE      CMP1CN1
      000000B0H.1 SFRSYM    DATA     BIT       P3_B1
      000000A0H.2 SFRSYM    DATA     BIT       P2_B2
      00000090H.3 SFRSYM    DATA     BIT       P1_B3
      00000080H.4 SFRSYM    DATA     BIT       P0_B4
      000000B0H.2 SFRSYM    DATA     BIT       P3_B2
      000000A0H.3 SFRSYM    DATA     BIT       P2_B3
      00000090H.4 SFRSYM    DATA     BIT       P1_B4
      00000080H.5 SFRSYM    DATA     BIT       P0_B5
      00000098H   SFRSYM    DATA     BIT       DACGCF1_D0UDIS
      000000D8H.1 SFRSYM    DATA     BIT       UART1FCN1_RXTO0
      000000B0H.3 SFRSYM    DATA     BIT       P3_B3
      000000A0H.4 SFRSYM    DATA     BIT       P2_B4
      00000090H.5 SFRSYM    DATA     BIT       P1_B5
      00000080H.6 SFRSYM    DATA     BIT       P0_B6
      00000098H.1 SFRSYM    DATA     BIT       DACGCF1_D1UDIS
      000000EEH   SFRSYM    DATA     BYTE      EIP1H
      000000D8H.2 SFRSYM    DATA     BIT       UART1FCN1_RXTO1
      000000B0H.4 SFRSYM    DATA     BIT       P3_B4
LX51 LINKER/LOCATER V4.66.30.0                                                        04/24/2017  21:26:22  PAGE 22


      000000A0H.5 SFRSYM    DATA     BIT       P2_B5
      00000090H.6 SFRSYM    DATA     BIT       P1_B6
      00000080H.7 SFRSYM    DATA     BIT       P0_B7
      00000098H.2 SFRSYM    DATA     BIT       DACGCF1_D2UDIS
      000000C5H   SFRSYM    DATA     BYTE      SMB0RXLN
      000000F6H   SFRSYM    DATA     BYTE      EIP2H
      000000A0H.6 SFRSYM    DATA     BIT       P2_B6
      00000090H.7 SFRSYM    DATA     BIT       P1_B7
      00000098H.3 SFRSYM    DATA     BIT       DACGCF1_D3UDIS
      000000B0H.7 SFRSYM    DATA     BIT       P3_B7
      00000083H   SFRSYM    DATA     BYTE      DPH
      000000C4H   SFRSYM    DATA     BYTE      ADC0GTH
      000000C8H.7 SFRSYM    DATA     BIT       TMR2CN0_TF2H
      000000C8H.3 SFRSYM    DATA     BIT       TMR2CN0_T2SPLIT
      000000D0H.6 SFRSYM    DATA     BIT       PSW_AC
      000000F8H   SFRSYM    DATA     BYTE      SPI0CN0
      000000C7H   SFRSYM    DATA     BYTE      HFO0CAL
      00000088H.5 SFRSYM    DATA     BIT       TCON_TF0
      00000098H   SFRSYM    DATA     BIT       SCON0_RI
      000000D6H   SFRSYM    DATA     BYTE      HFO1CAL
      00000082H   SFRSYM    DATA     BYTE      DPL
      00000088H.7 SFRSYM    DATA     BIT       TCON_TF1
      000000C8H   SFRSYM    DATA     BIT       SCON1_RI
      00000099H   SFRSYM    DATA     BYTE      SBUF0
      00000087H   SFRSYM    DATA     BYTE      PCON0
      000000F2H   SFRSYM    DATA     BYTE      IPH
      000000C3H   SFRSYM    DATA     BYTE      ADC0GTL
      00000098H.7 SFRSYM    DATA     BIT       TMR4CN0_TF4H
      00000098H.3 SFRSYM    DATA     BIT       TMR4CN0_T4SPLIT
      000000C8H.6 SFRSYM    DATA     BIT       TMR2CN0_TF2L
      00000098H.1 SFRSYM    DATA     BIT       SCON0_TI
      00000092H   SFRSYM    DATA     BYTE      SBUF1
      000000CDH   SFRSYM    DATA     BYTE      PCON1
      000000C6H   SFRSYM    DATA     BYTE      ADC0LTH
      00000088H   SFRSYM    DATA     BIT       TCON_IT0
      000000C8H.1 SFRSYM    DATA     BIT       SCON1_TI
      000000EFH   SFRSYM    DATA     BYTE      RSTSRC
      000000FDH   SFRSYM    DATA     BYTE      P0MAT
      000000CBH   SFRSYM    DATA     BYTE      CRC0DAT
      000000C0H.7 SFRSYM    DATA     BIT       TMR5CN0_TF5H
      000000C0H.3 SFRSYM    DATA     BIT       TMR5CN0_T5SPLIT
      00000088H.2 SFRSYM    DATA     BIT       TCON_IT1
      000000D7H   SFRSYM    DATA     BYTE      SFRSTACK
      00000098H   SFRSYM    DATA     BYTE      SCON0
      000000F6H   SFRSYM    DATA     BYTE      PRTDRV
      000000EDH   SFRSYM    DATA     BYTE      P1MAT
      000000E8H.3 SFRSYM    DATA     BIT       ADC0CN0_ADWINT
      00000093H   SFRSYM    DATA     BYTE      SMOD1
      000000C8H   SFRSYM    DATA     BYTE      SCON1
      000000FBH   SFRSYM    DATA     BYTE      P2MAT
      00000098H.6 SFRSYM    DATA     BIT       TMR4CN0_TF4L
      000000E8H.4 SFRSYM    DATA     BIT       ADC0CN0_ADBUSY
      000000D6H   SFRSYM    DATA     BYTE      SMB0ADM
      000000C5H   SFRSYM    DATA     BYTE      ADC0LTL
      000000F8H.5 SFRSYM    DATA     BIT       SPI0CN0_MODF
      000000B8H.6 SFRSYM    DATA     BIT       IP_PSPI0
      000000E8H.1 SFRSYM    DATA     BIT       ADC0CN0_ADGN0
      0000009CH   SFRSYM    DATA     BYTE      PCA0CLR
      000000C0H.6 SFRSYM    DATA     BIT       TMR5CN0_TF5L
      000000E8H.2 SFRSYM    DATA     BIT       ADC0CN0_ADGN1
      000000C8H   SFRSYM    DATA     BYTE      TMR2CN0
      00000091H   SFRSYM    DATA     BYTE      TMR3CN0
LX51 LINKER/LOCATER V4.66.30.0                                                        04/24/2017  21:26:22  PAGE 23


      000000FDH   SFRSYM    DATA     BYTE      TMR2CN1
      00000098H   SFRSYM    DATA     BYTE      TMR4CN0
      000000FEH   SFRSYM    DATA     BYTE      TMR3CN1
      000000B0H.4 SFRSYM    DATA     BIT       BSP_DISP_EN
      000000C0H   SFRSYM    DATA     BYTE      TMR5CN0
      000000FFH   SFRSYM    DATA     BYTE      TMR4CN1
      000000D7H   SFRSYM    DATA     BYTE      SMB0ADR
      00000088H.4 SFRSYM    DATA     BIT       TCON_TR0
      000000F1H   SFRSYM    DATA     BYTE      TMR5CN1
      000000C8H.4 SFRSYM    DATA     BIT       TMR2CN0_TF2CEN
      00000088H.6 SFRSYM    DATA     BIT       TCON_TR1
      000000C2H   SFRSYM    DATA     BYTE      SMB0DAT
      000000A0H.6 SFRSYM    DATA     BIT       BSP_DISP_CS
      000000CFH   SFRSYM    DATA     BYTE      TMR2H
      000000A1H   SFRSYM    DATA     BYTE      SPI0CFG
      00000095H   SFRSYM    DATA     BYTE      TMR3H
      000000EFH   SFRSYM    DATA     BYTE      HFOCN
      000000D3H   SFRSYM    DATA     BYTE      CRC0CNT
      000000A5H   SFRSYM    DATA     BYTE      TMR4H
      00000098H.4 SFRSYM    DATA     BIT       TMR4CN0_TF4CEN
      000000D5H   SFRSYM    DATA     BYTE      TMR5H
      000000EFH   SFRSYM    DATA     BYTE      SMB0FCT
      00000096H   SFRSYM    DATA     BYTE      PCA0POL
      000000CEH   SFRSYM    DATA     BYTE      TMR2L
      000000C0H.4 SFRSYM    DATA     BIT       TMR5CN0_TF5CEN
      000000F8H.7 SFRSYM    DATA     BIT       SPI0CN0_SPIF
      00000094H   SFRSYM    DATA     BYTE      TMR3L
      000000A8H.7 SFRSYM    DATA     BIT       IE_EA
      000000A4H   SFRSYM    DATA     BYTE      TMR4L
      000000D4H   SFRSYM    DATA     BYTE      TMR5L
      000000C8H.5 SFRSYM    DATA     BIT       TMR2CN0_TF2LEN
      000000F8H.6 SFRSYM    DATA     BIT       SPI0CN0_WCOL
      000000F8H.2 SFRSYM    DATA     BIT       SPI0CN0_NSSMD0
      000000D0H.7 SFRSYM    DATA     BIT       PSW_CY
      0000009DH   SFRSYM    DATA     BYTE      UART1FCN0
      000000DFH   SFRSYM    DATA     BYTE      SPI0PCF
      000000A3H   SFRSYM    DATA     BYTE      SPI0DAT
      000000ADH   SFRSYM    DATA     BYTE      I2C0FCN0
      000000F8H.3 SFRSYM    DATA     BIT       SPI0CN0_NSSMD1
      000000BDH   SFRSYM    DATA     WORD      ADC0
      000000D8H   SFRSYM    DATA     BYTE      UART1FCN1
      000000ABH   SFRSYM    DATA     BYTE      I2C0FCN1
      000000E8H   SFRSYM    DATA     BIT       CLIF0_C0FIF
      00000098H.5 SFRSYM    DATA     BIT       TMR4CN0_TF4LEN
      000000E8H.2 SFRSYM    DATA     BIT       CLIF0_C1FIF
      000000D0H   SFRSYM    DATA     BYTE      PSW
      000000F7H   SFRSYM    DATA     BYTE      PCA0PWM
      000000E8H.4 SFRSYM    DATA     BIT       CLIF0_C2FIF
      000000F7H   SFRSYM    DATA     BYTE      SPI0FCT
      000000B6H   SFRSYM    DATA     BYTE      REVID
      000000C0H.5 SFRSYM    DATA     BIT       TMR5CN0_TF5LEN
      000000E8H.6 SFRSYM    DATA     BIT       CLIF0_C3FIF
      000000B7H   SFRSYM    DATA     BYTE      FLKEY

      ---         MODULE    ---      ---       DISP
      0000001DH   PUBLIC    DATA     WORD      LastVcomToggle
      01001139H   PUBLIC    CODE     ---       _DISP_WriteLine
      010011BCH   PUBLIC    CODE     ---       _DISP_ClearLine
      01001334H   PUBLIC    CODE     ---       DISP_ClearAll
      010013AEH   PUBLIC    CODE     ---       DISP_Init
      010012A4H   PUBLIC    CODE     ---       _SoftwareVcomToggle
      01001256H   PUBLIC    CODE     ---       _BitReverse
LX51 LINKER/LOCATER V4.66.30.0                                                        04/24/2017  21:26:22  PAGE 24


      000000A2H   SFRSYM    DATA     BYTE      SPI0CKR
      00000080H   SFRSYM    DATA     BYTE      P0
      000000C8H.6 SFRSYM    DATA     BIT       SCON1_PERR
      000000D0H.2 SFRSYM    DATA     BIT       PSW_OV
      00000086H   SFRSYM    DATA     BYTE      XOSC0CN
      00000090H   SFRSYM    DATA     BYTE      P1
      000000F8H.1 SFRSYM    DATA     BIT       SPI0CN0_TXNF
      00000097H   SFRSYM    DATA     BYTE      WDTCN
      000000A0H   SFRSYM    DATA     BYTE      P2
      000000B0H   SFRSYM    DATA     BYTE      P3
      000000C0H.7 SFRSYM    DATA     BIT       SMB0CN0_MASTER
      000000F9H   SFRSYM    DATA     WORD      PCA0
      000000E6H   SFRSYM    DATA     BYTE      EIE1
      000000C0H.1 SFRSYM    DATA     BIT       SMB0CN0_ACK
      000000E8H.1 SFRSYM    DATA     BIT       CLIF0_C0RIF
      000000F3H   SFRSYM    DATA     BYTE      EIE2
      000000E8H.3 SFRSYM    DATA     BIT       CLIF0_C1RIF
      000000E8H.5 SFRSYM    DATA     BIT       CLIF0_C2RIF
      0000008FH   SFRSYM    DATA     BYTE      PSCTL
      00000080H.2 SFRSYM    DATA     BIT       BSP_PB0
      000000E8H.7 SFRSYM    DATA     BIT       CLIF0_C3RIF
      000000E4H   SFRSYM    DATA     BYTE      IT01CF
      00000080H.3 SFRSYM    DATA     BIT       BSP_PB1
      000000C0H.6 SFRSYM    DATA     BIT       SMB0CN0_TXMODE
      000000ADH   SFRSYM    DATA     BYTE      DERIVID
      000000A7H   SFRSYM    DATA     BYTE      SFRPAGE
      000000A4H   SFRSYM    DATA     BYTE      P0MDOUT
      000000A5H   SFRSYM    DATA     BYTE      P1MDOUT
      000000E8H.5 SFRSYM    DATA     BIT       ADC0CN0_ADINT
      000000CBH   SFRSYM    DATA     BYTE      TMR2RLH
      000000A6H   SFRSYM    DATA     BYTE      P2MDOUT
      000000A8H   SFRSYM    DATA     BYTE      IE
      00000093H   SFRSYM    DATA     BYTE      TMR3RLH
      0000009CH   SFRSYM    DATA     BYTE      P3MDOUT
      000000A3H   SFRSYM    DATA     BYTE      TMR4RLH
      000000BBH   SFRSYM    DATA     BYTE      EIP1
      000000D3H   SFRSYM    DATA     BYTE      TMR5RLH
      000000EDH   SFRSYM    DATA     BYTE      EIP2
      00000098H.2 SFRSYM    DATA     BIT       SCON0_RB8
      000000CAH   SFRSYM    DATA     BYTE      TMR2RLL
      000000FCH   SFRSYM    DATA     BYTE      PCA0CPH0
      00000092H   SFRSYM    DATA     BYTE      TMR3RLL
      000000EAH   SFRSYM    DATA     BYTE      PCA0CPH1
      00000098H.3 SFRSYM    DATA     BIT       SCON0_TB8
      000000F0H   SFRSYM    DATA     BIT       B_B0
      00000082H   SFRSYM    DATA     WORD      DP
      000000A2H   SFRSYM    DATA     BYTE      TMR4RLL
      000000ECH   SFRSYM    DATA     BYTE      PCA0CPH2
      000000F0H.1 SFRSYM    DATA     BIT       B_B1
      000000C3H   SFRSYM    DATA     WORD      ADC0GT
      000000D2H   SFRSYM    DATA     BYTE      TMR5RLL
      000000F5H   SFRSYM    DATA     BYTE      PCA0CPH3
      000000BDH   SFRSYM    DATA     BYTE      I2C0SLAD
      000000D8H.3 SFRSYM    DATA     BIT       UART1FCN1_RFRQ
      000000F0H.2 SFRSYM    DATA     BIT       B_B2
      000000BCH   SFRSYM    DATA     BYTE      SFRPGCN
      000000FBH   SFRSYM    DATA     BYTE      PCA0CPL0
      00000085H   SFRSYM    DATA     BYTE      PCA0CPH4
      000000F0H.3 SFRSYM    DATA     BIT       B_B3
      000000D9H   SFRSYM    DATA     BYTE      PCA0MD
      000000DAH   SFRSYM    DATA     BYTE      PCA0CPM0
      000000E9H   SFRSYM    DATA     BYTE      PCA0CPL1
LX51 LINKER/LOCATER V4.66.30.0                                                        04/24/2017  21:26:22  PAGE 25


      000000DEH   SFRSYM    DATA     BYTE      PCA0CPH5
      000000D8H.7 SFRSYM    DATA     BIT       UART1FCN1_TFRQ
      000000F0H.4 SFRSYM    DATA     BIT       B_B4
      000000DBH   SFRSYM    DATA     BYTE      PCA0CPM1
      000000EBH   SFRSYM    DATA     BYTE      PCA0CPL2
      000000A1H   SFRSYM    DATA     BYTE      ADC0ASCF
      000000B6H   SFRSYM    DATA     BYTE      ADC0ASAH
      000000F0H.5 SFRSYM    DATA     BIT       B_B5
      000000E8H.6 SFRSYM    DATA     BIT       ADC0CN0_IPOEN
      000000E8H   SFRSYM    DATA     BIT       ADC0CN0_TEMPE
      000000DCH   SFRSYM    DATA     BYTE      PCA0CPM2
      000000F4H   SFRSYM    DATA     BYTE      PCA0CPL3
      000000B8H   SFRSYM    DATA     BYTE      IP
      000000F0H.6 SFRSYM    DATA     BIT       B_B6
      000000C5H   SFRSYM    DATA     WORD      ADC0LT
      000000AEH   SFRSYM    DATA     BYTE      PCA0CPM3
      00000084H   SFRSYM    DATA     BYTE      PCA0CPL4
      000000D8H.6 SFRSYM    DATA     BIT       UART1FCN1_TXNF
      00000098H.5 SFRSYM    DATA     BIT       SCON0_MCE
      000000F0H.7 SFRSYM    DATA     BIT       B_B7
      000000AFH   SFRSYM    DATA     BYTE      PCA0CPM4
      000000DDH   SFRSYM    DATA     BYTE      PCA0CPL5
      000000C3H   SFRSYM    DATA     BYTE      SMB0FCN0
      000000CCH   SFRSYM    DATA     BYTE      PCA0CPM5
      000000B5H   SFRSYM    DATA     BYTE      ADC0ASAL
      000000E1H   SFRSYM    DATA     BYTE      XBR0
      000000C4H   SFRSYM    DATA     BYTE      SMB0FCN1
      000000C1H   SFRSYM    DATA     BYTE      SMB0CF
      000000E2H   SFRSYM    DATA     BYTE      XBR1
      000000C1H   SFRSYM    DATA     BYTE      PFE0CN
      000000E7H   SFRSYM    DATA     BYTE      EMI0CN
      000000C0H.5 SFRSYM    DATA     BIT       SMB0CN0_STA
      000000E3H   SFRSYM    DATA     BYTE      XBR2
      000000B1H   SFRSYM    DATA     BYTE      CLU0CF
      000000BBH   SFRSYM    DATA     BYTE      ADC0MX
      000000E0H   SFRSYM    DATA     BIT       ACC_ACC0
      000000D1H   SFRSYM    DATA     BYTE      REF0CN
      000000B3H   SFRSYM    DATA     BYTE      CLU1CF
      0000008EH   SFRSYM    DATA     BYTE      CKCON0
      000000E0H.1 SFRSYM    DATA     BIT       ACC_ACC1
      000000C9H   SFRSYM    DATA     BYTE      REG0CN
      000000CAH   SFRSYM    DATA     BYTE      CRC0IN
      000000B6H   SFRSYM    DATA     BYTE      CLU2CF
      000000A6H   SFRSYM    DATA     BYTE      CKCON1
      000000C8H.2 SFRSYM    DATA     BIT       TMR2CN0_TR2
      000000E0H.2 SFRSYM    DATA     BIT       ACC_ACC2
      000000BFH   SFRSYM    DATA     BYTE      CLU3CF
      000000E0H.3 SFRSYM    DATA     BIT       ACC_ACC3
      00000081H   SFRSYM    DATA     BYTE      SP
      0000009DH   SFRSYM    DATA     BYTE      CMP0MD
      000000E0H.4 SFRSYM    DATA     BIT       ACC_ACC4
      000000B1H   SFRSYM    DATA     BYTE      LFO0CN
      000000ABH   SFRSYM    DATA     BYTE      CMP1MD
      000000D8H   SFRSYM    DATA     BIT       PCA0CN0_CCF0
      000000E0H.5 SFRSYM    DATA     BIT       ACC_ACC5
      00000098H.2 SFRSYM    DATA     BIT       TMR4CN0_TR4
      000000D8H.1 SFRSYM    DATA     BIT       PCA0CN0_CCF1
      000000E0H.6 SFRSYM    DATA     BIT       ACC_ACC6
      000000CEH   SFRSYM    DATA     WORD      TMR2
      0000009AH   SFRSYM    DATA     BYTE      SPI0FCN0
      000000C7H   SFRSYM    DATA     BYTE      ADC0ASCT
      000000D8H.2 SFRSYM    DATA     BIT       PCA0CN0_CCF2
LX51 LINKER/LOCATER V4.66.30.0                                                        04/24/2017  21:26:22  PAGE 26


      000000E0H.7 SFRSYM    DATA     BIT       ACC_ACC7
      00000094H   SFRSYM    DATA     WORD      TMR3
      0000009BH   SFRSYM    DATA     BYTE      SPI0FCN1
      000000C0H.2 SFRSYM    DATA     BIT       TMR5CN0_TR5
      000000D8H.3 SFRSYM    DATA     BIT       PCA0CN0_CCF3
      000000A4H   SFRSYM    DATA     WORD      TMR4
      00000094H   SFRSYM    DATA     BYTE      SBCON1
      000000D8H.4 SFRSYM    DATA     BIT       PCA0CN0_CCF4
      000000D4H   SFRSYM    DATA     WORD      TMR5
      000000C0H.3 SFRSYM    DATA     BIT       SMB0CN0_ACKRQ
      000000D8H.5 SFRSYM    DATA     BIT       PCA0CN0_CCF5
      000000FFH   SFRSYM    DATA     BYTE      VDM0CN
      000000F1H   SFRSYM    DATA     BYTE      P0MDIN
      000000AFH   SFRSYM    DATA     BYTE      CLU0FN
      00000098H.4 SFRSYM    DATA     BIT       SCON0_REN
      000000ACH   SFRSYM    DATA     BYTE      SMB0TC
      000000F2H   SFRSYM    DATA     BYTE      P1MDIN
      000000B2H   SFRSYM    DATA     BYTE      CLU1FN
      000000C8H.4 SFRSYM    DATA     BIT       SCON1_REN
      000000F3H   SFRSYM    DATA     BYTE      P2MDIN
      000000B5H   SFRSYM    DATA     BYTE      CLU2FN
      000000C0H.4 SFRSYM    DATA     BIT       SMB0CN0_STO
      000000F4H   SFRSYM    DATA     BYTE      P3MDIN
      000000B9H   SFRSYM    DATA     BYTE      I2C0STAT
      000000BBH   SFRSYM    DATA     BYTE      I2C0DOUT
      000000BEH   SFRSYM    DATA     BYTE      CLU3FN
      00000096H   SFRSYM    DATA     BYTE      SBRLH1
      000000FEH   SFRSYM    DATA     BYTE      P0MASK
      000000D8H.5 SFRSYM    DATA     BIT       UART1FCN1_TXHOLD
      000000EEH   SFRSYM    DATA     BYTE      P1MASK
      000000FCH   SFRSYM    DATA     BYTE      P2MASK
      000000D0H.3 SFRSYM    DATA     BIT       PSW_RS0
      000000D8H.7 SFRSYM    DATA     BIT       PCA0CN0_CF
      0000009EH   SFRSYM    DATA     BYTE      PCA0CENT
      000000BAH   SFRSYM    DATA     BYTE      I2C0CN0
      000000D2H   SFRSYM    DATA     BYTE      CRC0ST
      000000F8H.4 SFRSYM    DATA     BIT       SPI0CN0_RXOVRN
      000000D0H.4 SFRSYM    DATA     BIT       PSW_RS1
      00000095H   SFRSYM    DATA     BYTE      SBRLL1
      000000C8H.2 SFRSYM    DATA     BIT       SCON1_RBX
      00000091H   SFRSYM    DATA     BYTE      DAC0CF0
      000000BCH   SFRSYM    DATA     BYTE      ADC0CF0
      000000C8H   SFRSYM    DATA     BIT       TMR2CN0_T2XCLK0
      00000093H   SFRSYM    DATA     BYTE      DAC1CF0
      00000092H   SFRSYM    DATA     BYTE      DAC0CF1
      000000B9H   SFRSYM    DATA     BYTE      ADC0CF1
      000000C8H.1 SFRSYM    DATA     BIT       TMR2CN0_T2XCLK1
      000000C8H.3 SFRSYM    DATA     BIT       SCON1_TBX
      000000E8H.7 SFRSYM    DATA     BIT       ADC0CN0_ADEN
      00000089H   SFRSYM    DATA     BYTE      TMOD
      00000088H   SFRSYM    DATA     BYTE      TCON
      00000095H   SFRSYM    DATA     BYTE      DAC2CF0
      00000094H   SFRSYM    DATA     BYTE      DAC1CF1
      000000DFH   SFRSYM    DATA     BYTE      ADC0CF2
      0000009AH   SFRSYM    DATA     BYTE      DAC3CF0
      00000096H   SFRSYM    DATA     BYTE      DAC2CF1
      000000CFH   SFRSYM    DATA     BYTE      CRC0FLIP
      000000D0H   SFRSYM    DATA     BIT       PSW_PARITY
      000000A8H.4 SFRSYM    DATA     BIT       IE_ES0
      0000009CH   SFRSYM    DATA     BYTE      DAC3CF1
      0000009FH   SFRSYM    DATA     BYTE      CMP0MX
      00000098H   SFRSYM    DATA     BIT       TMR4CN0_T4XCLK0
LX51 LINKER/LOCATER V4.66.30.0                                                        04/24/2017  21:26:22  PAGE 27


      000000A8H.1 SFRSYM    DATA     BIT       IE_ET0
      000000AAH   SFRSYM    DATA     BYTE      CMP1MX
      00000098H.1 SFRSYM    DATA     BIT       TMR4CN0_T4XCLK1
      000000A8H.3 SFRSYM    DATA     BIT       IE_ET1
      000000D4H   SFRSYM    DATA     BYTE      P0SKIP
      000000D1H   SFRSYM    DATA     BYTE      CLOUT0
      00000090H.7 SFRSYM    DATA     BIT       BSP_JOYSTICK
      000000D8H   SFRSYM    DATA     BIT       UART1FCN1_RIE
      000000C0H   SFRSYM    DATA     BIT       TMR5CN0_T5XCLK0
      000000A8H.5 SFRSYM    DATA     BIT       IE_ET2
      00000088H   SFRSYM    DATA     BIT       DACGCF0_D1SRC0
      000000D5H   SFRSYM    DATA     BYTE      P1SKIP
      000000C0H.1 SFRSYM    DATA     BIT       TMR5CN0_T5XCLK1
      00000088H.1 SFRSYM    DATA     BIT       DACGCF0_D1SRC1
      000000CCH   SFRSYM    DATA     BYTE      P2SKIP
      00000084H   SFRSYM    DATA     BYTE      CLU0MX
      000000E8H   SFRSYM    DATA     BYTE      ADC0CN0
      000000D8H.4 SFRSYM    DATA     BIT       UART1FCN1_TIE
      000000A8H   SFRSYM    DATA     BIT       IE_EX0
      00000088H.4 SFRSYM    DATA     BIT       DACGCF0_D3SRC0
      00000085H   SFRSYM    DATA     BYTE      CLU1MX
      000000B2H   SFRSYM    DATA     BYTE      ADC0CN1
      000000D8H.6 SFRSYM    DATA     BIT       PCA0CN0_CR
      000000A8H.2 SFRSYM    DATA     BIT       IE_EX1
      00000088H.5 SFRSYM    DATA     BIT       DACGCF0_D3SRC1
      00000091H   SFRSYM    DATA     BYTE      CLU2MX
      000000B3H   SFRSYM    DATA     BYTE      ADC0CN2
      00000090H.5 SFRSYM    DATA     BIT       BSP_LED_B
      000000C8H.7 SFRSYM    DATA     BIT       SCON1_OVR
      000000AAH   SFRSYM    DATA     BYTE      PSTAT0
      000000AEH   SFRSYM    DATA     BYTE      CLU3MX
      000000A0H.2 SFRSYM    DATA     BIT       BSP_BC_EN
      00000098H.7 SFRSYM    DATA     BIT       SCON0_SMODE
      000000B5H   SFRSYM    DATA     BYTE      DEVICEID
      000000A9H   SFRSYM    DATA     BYTE      CLKSEL
      000000F8H   SFRSYM    DATA     BIT       SPI0CN0_SPIEN
      00000085H   SFRSYM    DATA     BYTE      DAC0H
      000000F0H   SFRSYM    DATA     BYTE      B
      000000BEH   SFRSYM    DATA     BYTE      ADC0H
      000000FFH   SFRSYM    DATA     BYTE      I2C0ADM
      0000008AH   SFRSYM    DATA     BYTE      DAC1H
      00000090H.4 SFRSYM    DATA     BIT       BSP_LED_G
      00000088H.2 SFRSYM    DATA     BIT       DACGCF0_D1AMEN
      0000008CH   SFRSYM    DATA     BYTE      DAC2H
      0000008EH   SFRSYM    DATA     BYTE      DAC3H
      00000088H.6 SFRSYM    DATA     BIT       DACGCF0_D3AMEN
      000000CAH   SFRSYM    DATA     WORD      TMR2RL
      00000084H   SFRSYM    DATA     BYTE      DAC0L
      000000BDH   SFRSYM    DATA     BYTE      ADC0L
      00000092H   SFRSYM    DATA     WORD      TMR3RL
      00000089H   SFRSYM    DATA     BYTE      DAC1L
      000000A2H   SFRSYM    DATA     WORD      TMR4RL
      000000D8H   SFRSYM    DATA     BYTE      PCA0CN0
      0000008BH   SFRSYM    DATA     BYTE      DAC2L
      000000E0H   SFRSYM    DATA     BYTE      ACC
      000000D2H   SFRSYM    DATA     WORD      TMR5RL
      000000D9H   SFRSYM    DATA     BYTE      UART0PCF
      0000008DH   SFRSYM    DATA     BYTE      DAC3L
      000000FBH   SFRSYM    DATA     WORD      PCA0CP0
      000000DAH   SFRSYM    DATA     BYTE      UART1PCF
      000000E9H   SFRSYM    DATA     WORD      PCA0CP1
      00000088H   SFRSYM    DATA     BYTE      DACGCF0
LX51 LINKER/LOCATER V4.66.30.0                                                        04/24/2017  21:26:22  PAGE 28


      000000EBH   SFRSYM    DATA     WORD      PCA0CP2
      000000BCH   SFRSYM    DATA     BYTE      I2C0DIN
      00000098H   SFRSYM    DATA     BYTE      DACGCF1
      000000CEH   SFRSYM    DATA     BYTE      CRC0CN0
      000000F4H   SFRSYM    DATA     WORD      PCA0CP3
      0000008CH   SFRSYM    DATA     BYTE      TH0
      000000A2H   SFRSYM    DATA     BYTE      DACGCF2
      00000086H   SFRSYM    DATA     BYTE      CRC0CN1
      000000B8H.4 SFRSYM    DATA     BIT       IP_PS0
      00000084H   SFRSYM    DATA     WORD      PCA0CP4
      000000FAH   SFRSYM    DATA     BYTE      UART1FCT
      0000008DH   SFRSYM    DATA     BYTE      TH1
      000000FAH   SFRSYM    DATA     BYTE      PCA0H
      000000F5H   SFRSYM    DATA     BYTE      I2C0FCT
      00000090H.6 SFRSYM    DATA     BIT       BSP_LED_R
      000000B8H.1 SFRSYM    DATA     BIT       IP_PT0
      000000DDH   SFRSYM    DATA     WORD      PCA0CP5
      000000C7H   SFRSYM    DATA     BYTE      CLIE0
      000000B8H.3 SFRSYM    DATA     BIT       IP_PT1
      00000088H.3 SFRSYM    DATA     BIT       DACGCF0_D01REFSL
      000000B5H   SFRSYM    DATA     WORD      ADC0ASA
      000000E8H   SFRSYM    DATA     BYTE      CLIF0
      000000C0H.2 SFRSYM    DATA     BIT       SMB0CN0_ARBLOST
      000000B8H.5 SFRSYM    DATA     BIT       IP_PT2
      0000008AH   SFRSYM    DATA     BYTE      TL0
      000000D0H.5 SFRSYM    DATA     BIT       PSW_F0
      000000A8H.6 SFRSYM    DATA     BIT       IE_ESPI0
      0000008BH   SFRSYM    DATA     BYTE      TL1
      000000F9H   SFRSYM    DATA     BYTE      PCA0L
      000000C0H   SFRSYM    DATA     BIT       SMB0CN0_SI
      000000D0H.1 SFRSYM    DATA     BIT       PSW_F1
      00000080H   SFRSYM    DATA     BIT       P0_B0
      000000B8H   SFRSYM    DATA     BIT       IP_PX0
      00000090H   SFRSYM    DATA     BIT       P1_B0
      00000080H.1 SFRSYM    DATA     BIT       P0_B1
      000000B8H.2 SFRSYM    DATA     BIT       IP_PX1
      00000088H.7 SFRSYM    DATA     BIT       DACGCF0_D23REFSL
      0000009EH   SFRSYM    DATA     BYTE      UART1LIN
      0000009BH   SFRSYM    DATA     BYTE      CMP0CN0
      000000C6H   SFRSYM    DATA     BYTE      CLEN0
      00000088H.1 SFRSYM    DATA     BIT       TCON_IE0
      000000A0H   SFRSYM    DATA     BIT       P2_B0
      00000090H.1 SFRSYM    DATA     BIT       P1_B1
      00000080H.2 SFRSYM    DATA     BIT       P0_B2
      000000BFH   SFRSYM    DATA     BYTE      CMP1CN0
      00000099H   SFRSYM    DATA     BYTE      CMP0CN1
      00000088H.3 SFRSYM    DATA     BIT       TCON_IE1
      000000B0H   SFRSYM    DATA     BIT       P3_B0
      000000A0H.1 SFRSYM    DATA     BIT       P2_B1
      00000090H.2 SFRSYM    DATA     BIT       P1_B2
      00000080H.3 SFRSYM    DATA     BIT       P0_B3
      000000C0H   SFRSYM    DATA     BYTE      SMB0CN0
      000000ACH   SFRSYM    DATA     BYTE      CMP1CN1
      000000B0H.1 SFRSYM    DATA     BIT       P3_B1
      000000A0H.2 SFRSYM    DATA     BIT       P2_B2
      00000090H.3 SFRSYM    DATA     BIT       P1_B3
      00000080H.4 SFRSYM    DATA     BIT       P0_B4
      000000B0H.2 SFRSYM    DATA     BIT       P3_B2
      000000A0H.3 SFRSYM    DATA     BIT       P2_B3
      00000090H.4 SFRSYM    DATA     BIT       P1_B4
      00000080H.5 SFRSYM    DATA     BIT       P0_B5
      00000098H   SFRSYM    DATA     BIT       DACGCF1_D0UDIS
LX51 LINKER/LOCATER V4.66.30.0                                                        04/24/2017  21:26:22  PAGE 29


      000000D8H.1 SFRSYM    DATA     BIT       UART1FCN1_RXTO0
      000000B0H.3 SFRSYM    DATA     BIT       P3_B3
      000000A0H.4 SFRSYM    DATA     BIT       P2_B4
      00000090H.5 SFRSYM    DATA     BIT       P1_B5
      00000080H.6 SFRSYM    DATA     BIT       P0_B6
      00000098H.1 SFRSYM    DATA     BIT       DACGCF1_D1UDIS
      000000EEH   SFRSYM    DATA     BYTE      EIP1H
      000000D8H.2 SFRSYM    DATA     BIT       UART1FCN1_RXTO1
      000000B0H.4 SFRSYM    DATA     BIT       P3_B4
      000000A0H.5 SFRSYM    DATA     BIT       P2_B5
      00000090H.6 SFRSYM    DATA     BIT       P1_B6
      00000080H.7 SFRSYM    DATA     BIT       P0_B7
      00000098H.2 SFRSYM    DATA     BIT       DACGCF1_D2UDIS
      000000C5H   SFRSYM    DATA     BYTE      SMB0RXLN
      000000F6H   SFRSYM    DATA     BYTE      EIP2H
      000000A0H.6 SFRSYM    DATA     BIT       P2_B6
      00000090H.7 SFRSYM    DATA     BIT       P1_B7
      00000098H.3 SFRSYM    DATA     BIT       DACGCF1_D3UDIS
      000000B0H.7 SFRSYM    DATA     BIT       P3_B7
      00000083H   SFRSYM    DATA     BYTE      DPH
      000000C4H   SFRSYM    DATA     BYTE      ADC0GTH
      000000C8H.7 SFRSYM    DATA     BIT       TMR2CN0_TF2H
      000000C8H.3 SFRSYM    DATA     BIT       TMR2CN0_T2SPLIT
      000000D0H.6 SFRSYM    DATA     BIT       PSW_AC
      000000F8H   SFRSYM    DATA     BYTE      SPI0CN0
      000000C7H   SFRSYM    DATA     BYTE      HFO0CAL
      00000088H.5 SFRSYM    DATA     BIT       TCON_TF0
      00000098H   SFRSYM    DATA     BIT       SCON0_RI
      000000D6H   SFRSYM    DATA     BYTE      HFO1CAL
      00000082H   SFRSYM    DATA     BYTE      DPL
      00000088H.7 SFRSYM    DATA     BIT       TCON_TF1
      000000C8H   SFRSYM    DATA     BIT       SCON1_RI
      00000099H   SFRSYM    DATA     BYTE      SBUF0
      00000087H   SFRSYM    DATA     BYTE      PCON0
      000000F2H   SFRSYM    DATA     BYTE      IPH
      000000C3H   SFRSYM    DATA     BYTE      ADC0GTL
      00000098H.7 SFRSYM    DATA     BIT       TMR4CN0_TF4H
      00000098H.3 SFRSYM    DATA     BIT       TMR4CN0_T4SPLIT
      000000C8H.6 SFRSYM    DATA     BIT       TMR2CN0_TF2L
      00000098H.1 SFRSYM    DATA     BIT       SCON0_TI
      00000092H   SFRSYM    DATA     BYTE      SBUF1
      000000CDH   SFRSYM    DATA     BYTE      PCON1
      000000C6H   SFRSYM    DATA     BYTE      ADC0LTH
      00000088H   SFRSYM    DATA     BIT       TCON_IT0
      000000C8H.1 SFRSYM    DATA     BIT       SCON1_TI
      000000EFH   SFRSYM    DATA     BYTE      RSTSRC
      000000FDH   SFRSYM    DATA     BYTE      P0MAT
      000000CBH   SFRSYM    DATA     BYTE      CRC0DAT
      000000C0H.7 SFRSYM    DATA     BIT       TMR5CN0_TF5H
      000000C0H.3 SFRSYM    DATA     BIT       TMR5CN0_T5SPLIT
      00000088H.2 SFRSYM    DATA     BIT       TCON_IT1
      000000D7H   SFRSYM    DATA     BYTE      SFRSTACK
      00000098H   SFRSYM    DATA     BYTE      SCON0
      000000F6H   SFRSYM    DATA     BYTE      PRTDRV
      000000EDH   SFRSYM    DATA     BYTE      P1MAT
      000000E8H.3 SFRSYM    DATA     BIT       ADC0CN0_ADWINT
      00000093H   SFRSYM    DATA     BYTE      SMOD1
      000000C8H   SFRSYM    DATA     BYTE      SCON1
      000000FBH   SFRSYM    DATA     BYTE      P2MAT
      00000098H.6 SFRSYM    DATA     BIT       TMR4CN0_TF4L
      000000E8H.4 SFRSYM    DATA     BIT       ADC0CN0_ADBUSY
      000000D6H   SFRSYM    DATA     BYTE      SMB0ADM
LX51 LINKER/LOCATER V4.66.30.0                                                        04/24/2017  21:26:22  PAGE 30


      000000C5H   SFRSYM    DATA     BYTE      ADC0LTL
      000000F8H.5 SFRSYM    DATA     BIT       SPI0CN0_MODF
      000000B8H.6 SFRSYM    DATA     BIT       IP_PSPI0
      000000E8H.1 SFRSYM    DATA     BIT       ADC0CN0_ADGN0
      0000009CH   SFRSYM    DATA     BYTE      PCA0CLR
      000000C0H.6 SFRSYM    DATA     BIT       TMR5CN0_TF5L
      000000E8H.2 SFRSYM    DATA     BIT       ADC0CN0_ADGN1
      000000C8H   SFRSYM    DATA     BYTE      TMR2CN0
      00000091H   SFRSYM    DATA     BYTE      TMR3CN0
      000000FDH   SFRSYM    DATA     BYTE      TMR2CN1
      00000098H   SFRSYM    DATA     BYTE      TMR4CN0
      000000FEH   SFRSYM    DATA     BYTE      TMR3CN1
      000000B0H.4 SFRSYM    DATA     BIT       BSP_DISP_EN
      000000C0H   SFRSYM    DATA     BYTE      TMR5CN0
      000000FFH   SFRSYM    DATA     BYTE      TMR4CN1
      000000D7H   SFRSYM    DATA     BYTE      SMB0ADR
      00000088H.4 SFRSYM    DATA     BIT       TCON_TR0
      000000F1H   SFRSYM    DATA     BYTE      TMR5CN1
      000000C8H.4 SFRSYM    DATA     BIT       TMR2CN0_TF2CEN
      00000088H.6 SFRSYM    DATA     BIT       TCON_TR1
      000000C2H   SFRSYM    DATA     BYTE      SMB0DAT
      000000A0H.6 SFRSYM    DATA     BIT       BSP_DISP_CS
      000000CFH   SFRSYM    DATA     BYTE      TMR2H
      000000A1H   SFRSYM    DATA     BYTE      SPI0CFG
      00000095H   SFRSYM    DATA     BYTE      TMR3H
      000000EFH   SFRSYM    DATA     BYTE      HFOCN
      000000D3H   SFRSYM    DATA     BYTE      CRC0CNT
      000000A5H   SFRSYM    DATA     BYTE      TMR4H
      00000098H.4 SFRSYM    DATA     BIT       TMR4CN0_TF4CEN
      000000D5H   SFRSYM    DATA     BYTE      TMR5H
      000000EFH   SFRSYM    DATA     BYTE      SMB0FCT
      00000096H   SFRSYM    DATA     BYTE      PCA0POL
      000000CEH   SFRSYM    DATA     BYTE      TMR2L
      000000C0H.4 SFRSYM    DATA     BIT       TMR5CN0_TF5CEN
      000000F8H.7 SFRSYM    DATA     BIT       SPI0CN0_SPIF
      00000094H   SFRSYM    DATA     BYTE      TMR3L
      000000A8H.7 SFRSYM    DATA     BIT       IE_EA
      000000A4H   SFRSYM    DATA     BYTE      TMR4L
      000000D4H   SFRSYM    DATA     BYTE      TMR5L
      000000C8H.5 SFRSYM    DATA     BIT       TMR2CN0_TF2LEN
      000000F8H.6 SFRSYM    DATA     BIT       SPI0CN0_WCOL
      000000F8H.2 SFRSYM    DATA     BIT       SPI0CN0_NSSMD0
      000000D0H.7 SFRSYM    DATA     BIT       PSW_CY
      0000009DH   SFRSYM    DATA     BYTE      UART1FCN0
      000000DFH   SFRSYM    DATA     BYTE      SPI0PCF
      000000A3H   SFRSYM    DATA     BYTE      SPI0DAT
      000000ADH   SFRSYM    DATA     BYTE      I2C0FCN0
      000000F8H.3 SFRSYM    DATA     BIT       SPI0CN0_NSSMD1
      000000BDH   SFRSYM    DATA     WORD      ADC0
      000000D8H   SFRSYM    DATA     BYTE      UART1FCN1
      000000ABH   SFRSYM    DATA     BYTE      I2C0FCN1
      000000E8H   SFRSYM    DATA     BIT       CLIF0_C0FIF
      00000098H.5 SFRSYM    DATA     BIT       TMR4CN0_TF4LEN
      000000E8H.2 SFRSYM    DATA     BIT       CLIF0_C1FIF
      000000D0H   SFRSYM    DATA     BYTE      PSW
      000000F7H   SFRSYM    DATA     BYTE      PCA0PWM
      000000E8H.4 SFRSYM    DATA     BIT       CLIF0_C2FIF
      000000F7H   SFRSYM    DATA     BYTE      SPI0FCT
      000000B6H   SFRSYM    DATA     BYTE      REVID
      000000C0H.5 SFRSYM    DATA     BIT       TMR5CN0_TF5LEN
      000000E8H.6 SFRSYM    DATA     BIT       CLIF0_C3FIF
      000000B7H   SFRSYM    DATA     BYTE      FLKEY
LX51 LINKER/LOCATER V4.66.30.0                                                        04/24/2017  21:26:22  PAGE 31



      01001256H   BLOCK     CODE     ---       LVL=0
      00000007H   SYMBOL    DATA     BYTE      input
      01001256H   BLOCK     CODE     NEAR LAB  LVL=1
      00000007H   SYMBOL    DATA     BYTE      output
      ---         BLOCKEND  ---      ---       LVL=1
      01001256H   LINE      CODE     ---       #40
      01001256H   LINE      CODE     ---       #41
      01001256H   LINE      CODE     ---       #42
      01001256H   LINE      CODE     ---       #44
      01001265H   LINE      CODE     ---       #45
      01001275H   LINE      CODE     ---       #46
      01001281H   LINE      CODE     ---       #48
      01001281H   LINE      CODE     ---       #49
      ---         BLOCKEND  ---      ---       LVL=0

      010012A4H   BLOCK     CODE     ---       LVL=0
      0000004AH   SYMBOL    DATA     BYTE      cmd
      010012A6H   BLOCK     CODE     NEAR LAB  LVL=1
      00000006H   SYMBOL    DATA     WORD      tick
      ---         BLOCKEND  ---      ---       LVL=1
      010012A4H   LINE      CODE     ---       #57
      010012A6H   LINE      CODE     ---       #58
      010012A6H   LINE      CODE     ---       #59
      010012A9H   LINE      CODE     ---       #61
      010012BBH   LINE      CODE     ---       #62
      010012BBH   LINE      CODE     ---       #64
      010012BEH   LINE      CODE     ---       #66
      010012C2H   LINE      CODE     ---       #67
      010012C2H   LINE      CODE     ---       #69
      010012C4H   LINE      CODE     ---       #70
      ---         BLOCKEND  ---      ---       LVL=0

      010013AEH   BLOCK     CODE     ---       LVL=0
      010013AEH   LINE      CODE     ---       #76
      010013AEH   LINE      CODE     ---       #77
      010013AEH   LINE      CODE     ---       #78
      010013B0H   LINE      CODE     ---       #79
      010013B2H   LINE      CODE     ---       #81
      010013B9H   LINE      CODE     ---       #83
      ---         BLOCKEND  ---      ---       LVL=0

      01001334H   BLOCK     CODE     ---       LVL=0
      01001334H   BLOCK     CODE     NEAR LAB  LVL=1
      00000027H   SYMBOL    DATA     BYTE      i
      ---         BLOCKEND  ---      ---       LVL=1
      01001334H   LINE      CODE     ---       #90
      01001334H   LINE      CODE     ---       #91
      01001334H   LINE      CODE     ---       #102
      01001337H   LINE      CODE     ---       #103
      01001337H   LINE      CODE     ---       #104
      0100133EH   LINE      CODE     ---       #105
      01001347H   LINE      CODE     ---       #107
      ---         BLOCKEND  ---      ---       LVL=0

      010011BCH   BLOCK     CODE     ---       LVL=0
      00000028H   SYMBOL    DATA     BYTE      row
      00000029H   SYMBOL    DATA     BYTE      bw
      010011C0H   BLOCK     CODE     NEAR LAB  LVL=1
      00000007H   SYMBOL    DATA     BYTE      i
      0000002AH   SYMBOL    DATA     ---       cmd
      ---         BLOCKEND  ---      ---       LVL=1
LX51 LINKER/LOCATER V4.66.30.0                                                        04/24/2017  21:26:22  PAGE 32


      010011BCH   LINE      CODE     ---       #116
      010011C0H   LINE      CODE     ---       #117
      010011C0H   LINE      CODE     ---       #121
      010011C4H   LINE      CODE     ---       #122
      010011C4H   LINE      CODE     ---       #123
      010011C7H   LINE      CODE     ---       #124
      010011C9H   LINE      CODE     ---       #126
      010011C9H   LINE      CODE     ---       #127
      010011CCH   LINE      CODE     ---       #128
      010011CCH   LINE      CODE     ---       #131
      010011D3H   LINE      CODE     ---       #132
      010011DCH   LINE      CODE     ---       #135
      010011DEH   LINE      CODE     ---       #136
      010011DEH   LINE      CODE     ---       #137
      010011E4H   LINE      CODE     ---       #138
      010011E8H   LINE      CODE     ---       #141
      010011EBH   LINE      CODE     ---       #142
      010011EDH   LINE      CODE     ---       #145
      ---         BLOCKEND  ---      ---       LVL=0

      01001139H   BLOCK     CODE     ---       LVL=0
      00000032H   SYMBOL    DATA     BYTE      row
      00000033H   SYMBOL    DATA     ---       line
      01001141H   BLOCK     CODE     NEAR LAB  LVL=1
      00000007H   SYMBOL    DATA     BYTE      i
      00000036H   SYMBOL    DATA     ---       cmd
      ---         BLOCKEND  ---      ---       LVL=1
      01001139H   LINE      CODE     ---       #157
      01001141H   LINE      CODE     ---       #158
      01001141H   LINE      CODE     ---       #163
      01001148H   LINE      CODE     ---       #164
      01001151H   LINE      CODE     ---       #166
      01001153H   LINE      CODE     ---       #167
      01001153H   LINE      CODE     ---       #168
      01001168H   LINE      CODE     ---       #169
      0100116CH   LINE      CODE     ---       #172
      0100116FH   LINE      CODE     ---       #173
      01001171H   LINE      CODE     ---       #176
      ---         BLOCKEND  ---      ---       LVL=0

      ---         MODULE    ---      ---       RENDER
      00000032H   PUBLIC    DATA     BYTE      ?_RENDER_Large_StrLine?BYTE
      01000AA1H   PUBLIC    CODE     ---       _RENDER_Large_StrLine
      0100135CH   PUBLIC    CODE     ---       _RENDER_ClrLine
      000000A2H   SFRSYM    DATA     BYTE      SPI0CKR
      00000080H   SFRSYM    DATA     BYTE      P0
      000000C8H.6 SFRSYM    DATA     BIT       SCON1_PERR
      000000D0H.2 SFRSYM    DATA     BIT       PSW_OV
      00000086H   SFRSYM    DATA     BYTE      XOSC0CN
      00000090H   SFRSYM    DATA     BYTE      P1
      000000F8H.1 SFRSYM    DATA     BIT       SPI0CN0_TXNF
      00000097H   SFRSYM    DATA     BYTE      WDTCN
      000000A0H   SFRSYM    DATA     BYTE      P2
      000000B0H   SFRSYM    DATA     BYTE      P3
      000000C0H.7 SFRSYM    DATA     BIT       SMB0CN0_MASTER
      000000F9H   SFRSYM    DATA     WORD      PCA0
      000000E6H   SFRSYM    DATA     BYTE      EIE1
      000000C0H.1 SFRSYM    DATA     BIT       SMB0CN0_ACK
      000000E8H.1 SFRSYM    DATA     BIT       CLIF0_C0RIF
      000000F3H   SFRSYM    DATA     BYTE      EIE2
      000000E8H.3 SFRSYM    DATA     BIT       CLIF0_C1RIF
      000000E8H.5 SFRSYM    DATA     BIT       CLIF0_C2RIF
LX51 LINKER/LOCATER V4.66.30.0                                                        04/24/2017  21:26:22  PAGE 33


      0000008FH   SFRSYM    DATA     BYTE      PSCTL
      00000080H.2 SFRSYM    DATA     BIT       BSP_PB0
      000000E8H.7 SFRSYM    DATA     BIT       CLIF0_C3RIF
      000000E4H   SFRSYM    DATA     BYTE      IT01CF
      00000080H.3 SFRSYM    DATA     BIT       BSP_PB1
      000000C0H.6 SFRSYM    DATA     BIT       SMB0CN0_TXMODE
      000000ADH   SFRSYM    DATA     BYTE      DERIVID
      000000A7H   SFRSYM    DATA     BYTE      SFRPAGE
      000000A4H   SFRSYM    DATA     BYTE      P0MDOUT
      000000A5H   SFRSYM    DATA     BYTE      P1MDOUT
      000000E8H.5 SFRSYM    DATA     BIT       ADC0CN0_ADINT
      000000CBH   SFRSYM    DATA     BYTE      TMR2RLH
      000000A6H   SFRSYM    DATA     BYTE      P2MDOUT
      000000A8H   SFRSYM    DATA     BYTE      IE
      00000093H   SFRSYM    DATA     BYTE      TMR3RLH
      0000009CH   SFRSYM    DATA     BYTE      P3MDOUT
      000000A3H   SFRSYM    DATA     BYTE      TMR4RLH
      000000BBH   SFRSYM    DATA     BYTE      EIP1
      000000D3H   SFRSYM    DATA     BYTE      TMR5RLH
      000000EDH   SFRSYM    DATA     BYTE      EIP2
      00000098H.2 SFRSYM    DATA     BIT       SCON0_RB8
      000000CAH   SFRSYM    DATA     BYTE      TMR2RLL
      000000FCH   SFRSYM    DATA     BYTE      PCA0CPH0
      00000092H   SFRSYM    DATA     BYTE      TMR3RLL
      000000EAH   SFRSYM    DATA     BYTE      PCA0CPH1
      00000098H.3 SFRSYM    DATA     BIT       SCON0_TB8
      000000F0H   SFRSYM    DATA     BIT       B_B0
      00000082H   SFRSYM    DATA     WORD      DP
      000000A2H   SFRSYM    DATA     BYTE      TMR4RLL
      000000ECH   SFRSYM    DATA     BYTE      PCA0CPH2
      000000F0H.1 SFRSYM    DATA     BIT       B_B1
      000000C3H   SFRSYM    DATA     WORD      ADC0GT
      000000D2H   SFRSYM    DATA     BYTE      TMR5RLL
      000000F5H   SFRSYM    DATA     BYTE      PCA0CPH3
      000000BDH   SFRSYM    DATA     BYTE      I2C0SLAD
      000000D8H.3 SFRSYM    DATA     BIT       UART1FCN1_RFRQ
      000000F0H.2 SFRSYM    DATA     BIT       B_B2
      000000BCH   SFRSYM    DATA     BYTE      SFRPGCN
      000000FBH   SFRSYM    DATA     BYTE      PCA0CPL0
      00000085H   SFRSYM    DATA     BYTE      PCA0CPH4
      000000F0H.3 SFRSYM    DATA     BIT       B_B3
      000000D9H   SFRSYM    DATA     BYTE      PCA0MD
      000000DAH   SFRSYM    DATA     BYTE      PCA0CPM0
      000000E9H   SFRSYM    DATA     BYTE      PCA0CPL1
      000000DEH   SFRSYM    DATA     BYTE      PCA0CPH5
      000000D8H.7 SFRSYM    DATA     BIT       UART1FCN1_TFRQ
      000000F0H.4 SFRSYM    DATA     BIT       B_B4
      000000DBH   SFRSYM    DATA     BYTE      PCA0CPM1
      000000EBH   SFRSYM    DATA     BYTE      PCA0CPL2
      000000A1H   SFRSYM    DATA     BYTE      ADC0ASCF
      000000B6H   SFRSYM    DATA     BYTE      ADC0ASAH
      000000F0H.5 SFRSYM    DATA     BIT       B_B5
      000000E8H.6 SFRSYM    DATA     BIT       ADC0CN0_IPOEN
      000000E8H   SFRSYM    DATA     BIT       ADC0CN0_TEMPE
      000000DCH   SFRSYM    DATA     BYTE      PCA0CPM2
      000000F4H   SFRSYM    DATA     BYTE      PCA0CPL3
      000000B8H   SFRSYM    DATA     BYTE      IP
      000000F0H.6 SFRSYM    DATA     BIT       B_B6
      000000C5H   SFRSYM    DATA     WORD      ADC0LT
      000000AEH   SFRSYM    DATA     BYTE      PCA0CPM3
      00000084H   SFRSYM    DATA     BYTE      PCA0CPL4
      000000D8H.6 SFRSYM    DATA     BIT       UART1FCN1_TXNF
LX51 LINKER/LOCATER V4.66.30.0                                                        04/24/2017  21:26:22  PAGE 34


      00000098H.5 SFRSYM    DATA     BIT       SCON0_MCE
      000000F0H.7 SFRSYM    DATA     BIT       B_B7
      000000AFH   SFRSYM    DATA     BYTE      PCA0CPM4
      000000DDH   SFRSYM    DATA     BYTE      PCA0CPL5
      000000C3H   SFRSYM    DATA     BYTE      SMB0FCN0
      000000CCH   SFRSYM    DATA     BYTE      PCA0CPM5
      000000B5H   SFRSYM    DATA     BYTE      ADC0ASAL
      000000E1H   SFRSYM    DATA     BYTE      XBR0
      000000C4H   SFRSYM    DATA     BYTE      SMB0FCN1
      000000C1H   SFRSYM    DATA     BYTE      SMB0CF
      000000E2H   SFRSYM    DATA     BYTE      XBR1
      000000C1H   SFRSYM    DATA     BYTE      PFE0CN
      000000E7H   SFRSYM    DATA     BYTE      EMI0CN
      000000C0H.5 SFRSYM    DATA     BIT       SMB0CN0_STA
      000000E3H   SFRSYM    DATA     BYTE      XBR2
      000000B1H   SFRSYM    DATA     BYTE      CLU0CF
      000000BBH   SFRSYM    DATA     BYTE      ADC0MX
      000000E0H   SFRSYM    DATA     BIT       ACC_ACC0
      000000D1H   SFRSYM    DATA     BYTE      REF0CN
      000000B3H   SFRSYM    DATA     BYTE      CLU1CF
      0000008EH   SFRSYM    DATA     BYTE      CKCON0
      000000E0H.1 SFRSYM    DATA     BIT       ACC_ACC1
      000000C9H   SFRSYM    DATA     BYTE      REG0CN
      000000CAH   SFRSYM    DATA     BYTE      CRC0IN
      000000B6H   SFRSYM    DATA     BYTE      CLU2CF
      000000A6H   SFRSYM    DATA     BYTE      CKCON1
      000000C8H.2 SFRSYM    DATA     BIT       TMR2CN0_TR2
      000000E0H.2 SFRSYM    DATA     BIT       ACC_ACC2
      000000BFH   SFRSYM    DATA     BYTE      CLU3CF
      000000E0H.3 SFRSYM    DATA     BIT       ACC_ACC3
      00000081H   SFRSYM    DATA     BYTE      SP
      0000009DH   SFRSYM    DATA     BYTE      CMP0MD
      000000E0H.4 SFRSYM    DATA     BIT       ACC_ACC4
      000000B1H   SFRSYM    DATA     BYTE      LFO0CN
      000000ABH   SFRSYM    DATA     BYTE      CMP1MD
      000000D8H   SFRSYM    DATA     BIT       PCA0CN0_CCF0
      000000E0H.5 SFRSYM    DATA     BIT       ACC_ACC5
      00000098H.2 SFRSYM    DATA     BIT       TMR4CN0_TR4
      000000D8H.1 SFRSYM    DATA     BIT       PCA0CN0_CCF1
      000000E0H.6 SFRSYM    DATA     BIT       ACC_ACC6
      000000CEH   SFRSYM    DATA     WORD      TMR2
      0000009AH   SFRSYM    DATA     BYTE      SPI0FCN0
      000000C7H   SFRSYM    DATA     BYTE      ADC0ASCT
      000000D8H.2 SFRSYM    DATA     BIT       PCA0CN0_CCF2
      000000E0H.7 SFRSYM    DATA     BIT       ACC_ACC7
      00000094H   SFRSYM    DATA     WORD      TMR3
      0000009BH   SFRSYM    DATA     BYTE      SPI0FCN1
      000000C0H.2 SFRSYM    DATA     BIT       TMR5CN0_TR5
      000000D8H.3 SFRSYM    DATA     BIT       PCA0CN0_CCF3
      000000A4H   SFRSYM    DATA     WORD      TMR4
      00000094H   SFRSYM    DATA     BYTE      SBCON1
      000000D8H.4 SFRSYM    DATA     BIT       PCA0CN0_CCF4
      000000D4H   SFRSYM    DATA     WORD      TMR5
      000000C0H.3 SFRSYM    DATA     BIT       SMB0CN0_ACKRQ
      000000D8H.5 SFRSYM    DATA     BIT       PCA0CN0_CCF5
      000000FFH   SFRSYM    DATA     BYTE      VDM0CN
      000000F1H   SFRSYM    DATA     BYTE      P0MDIN
      000000AFH   SFRSYM    DATA     BYTE      CLU0FN
      00000098H.4 SFRSYM    DATA     BIT       SCON0_REN
      000000ACH   SFRSYM    DATA     BYTE      SMB0TC
      000000F2H   SFRSYM    DATA     BYTE      P1MDIN
      000000B2H   SFRSYM    DATA     BYTE      CLU1FN
LX51 LINKER/LOCATER V4.66.30.0                                                        04/24/2017  21:26:22  PAGE 35


      000000C8H.4 SFRSYM    DATA     BIT       SCON1_REN
      000000F3H   SFRSYM    DATA     BYTE      P2MDIN
      000000B5H   SFRSYM    DATA     BYTE      CLU2FN
      000000C0H.4 SFRSYM    DATA     BIT       SMB0CN0_STO
      000000F4H   SFRSYM    DATA     BYTE      P3MDIN
      000000B9H   SFRSYM    DATA     BYTE      I2C0STAT
      000000BBH   SFRSYM    DATA     BYTE      I2C0DOUT
      000000BEH   SFRSYM    DATA     BYTE      CLU3FN
      00000096H   SFRSYM    DATA     BYTE      SBRLH1
      000000FEH   SFRSYM    DATA     BYTE      P0MASK
      000000D8H.5 SFRSYM    DATA     BIT       UART1FCN1_TXHOLD
      000000EEH   SFRSYM    DATA     BYTE      P1MASK
      000000FCH   SFRSYM    DATA     BYTE      P2MASK
      000000D0H.3 SFRSYM    DATA     BIT       PSW_RS0
      000000D8H.7 SFRSYM    DATA     BIT       PCA0CN0_CF
      0000009EH   SFRSYM    DATA     BYTE      PCA0CENT
      000000BAH   SFRSYM    DATA     BYTE      I2C0CN0
      000000D2H   SFRSYM    DATA     BYTE      CRC0ST
      000000F8H.4 SFRSYM    DATA     BIT       SPI0CN0_RXOVRN
      000000D0H.4 SFRSYM    DATA     BIT       PSW_RS1
      00000095H   SFRSYM    DATA     BYTE      SBRLL1
      000000C8H.2 SFRSYM    DATA     BIT       SCON1_RBX
      00000091H   SFRSYM    DATA     BYTE      DAC0CF0
      000000BCH   SFRSYM    DATA     BYTE      ADC0CF0
      000000C8H   SFRSYM    DATA     BIT       TMR2CN0_T2XCLK0
      00000093H   SFRSYM    DATA     BYTE      DAC1CF0
      00000092H   SFRSYM    DATA     BYTE      DAC0CF1
      000000B9H   SFRSYM    DATA     BYTE      ADC0CF1
      000000C8H.1 SFRSYM    DATA     BIT       TMR2CN0_T2XCLK1
      000000C8H.3 SFRSYM    DATA     BIT       SCON1_TBX
      000000E8H.7 SFRSYM    DATA     BIT       ADC0CN0_ADEN
      00000089H   SFRSYM    DATA     BYTE      TMOD
      00000088H   SFRSYM    DATA     BYTE      TCON
      00000095H   SFRSYM    DATA     BYTE      DAC2CF0
      00000094H   SFRSYM    DATA     BYTE      DAC1CF1
      000000DFH   SFRSYM    DATA     BYTE      ADC0CF2
      0000009AH   SFRSYM    DATA     BYTE      DAC3CF0
      00000096H   SFRSYM    DATA     BYTE      DAC2CF1
      000000CFH   SFRSYM    DATA     BYTE      CRC0FLIP
      000000D0H   SFRSYM    DATA     BIT       PSW_PARITY
      000000A8H.4 SFRSYM    DATA     BIT       IE_ES0
      0000009CH   SFRSYM    DATA     BYTE      DAC3CF1
      0000009FH   SFRSYM    DATA     BYTE      CMP0MX
      00000098H   SFRSYM    DATA     BIT       TMR4CN0_T4XCLK0
      000000A8H.1 SFRSYM    DATA     BIT       IE_ET0
      000000AAH   SFRSYM    DATA     BYTE      CMP1MX
      00000098H.1 SFRSYM    DATA     BIT       TMR4CN0_T4XCLK1
      000000A8H.3 SFRSYM    DATA     BIT       IE_ET1
      000000D4H   SFRSYM    DATA     BYTE      P0SKIP
      000000D1H   SFRSYM    DATA     BYTE      CLOUT0
      00000090H.7 SFRSYM    DATA     BIT       BSP_JOYSTICK
      000000D8H   SFRSYM    DATA     BIT       UART1FCN1_RIE
      000000C0H   SFRSYM    DATA     BIT       TMR5CN0_T5XCLK0
      000000A8H.5 SFRSYM    DATA     BIT       IE_ET2
      00000088H   SFRSYM    DATA     BIT       DACGCF0_D1SRC0
      000000D5H   SFRSYM    DATA     BYTE      P1SKIP
      000000C0H.1 SFRSYM    DATA     BIT       TMR5CN0_T5XCLK1
      00000088H.1 SFRSYM    DATA     BIT       DACGCF0_D1SRC1
      000000CCH   SFRSYM    DATA     BYTE      P2SKIP
      00000084H   SFRSYM    DATA     BYTE      CLU0MX
      000000E8H   SFRSYM    DATA     BYTE      ADC0CN0
      000000D8H.4 SFRSYM    DATA     BIT       UART1FCN1_TIE
LX51 LINKER/LOCATER V4.66.30.0                                                        04/24/2017  21:26:22  PAGE 36


      000000A8H   SFRSYM    DATA     BIT       IE_EX0
      00000088H.4 SFRSYM    DATA     BIT       DACGCF0_D3SRC0
      00000085H   SFRSYM    DATA     BYTE      CLU1MX
      000000B2H   SFRSYM    DATA     BYTE      ADC0CN1
      000000D8H.6 SFRSYM    DATA     BIT       PCA0CN0_CR
      000000A8H.2 SFRSYM    DATA     BIT       IE_EX1
      00000088H.5 SFRSYM    DATA     BIT       DACGCF0_D3SRC1
      00000091H   SFRSYM    DATA     BYTE      CLU2MX
      000000B3H   SFRSYM    DATA     BYTE      ADC0CN2
      00000090H.5 SFRSYM    DATA     BIT       BSP_LED_B
      000000C8H.7 SFRSYM    DATA     BIT       SCON1_OVR
      000000AAH   SFRSYM    DATA     BYTE      PSTAT0
      000000AEH   SFRSYM    DATA     BYTE      CLU3MX
      000000A0H.2 SFRSYM    DATA     BIT       BSP_BC_EN
      00000098H.7 SFRSYM    DATA     BIT       SCON0_SMODE
      000000B5H   SFRSYM    DATA     BYTE      DEVICEID
      000000A9H   SFRSYM    DATA     BYTE      CLKSEL
      000000F8H   SFRSYM    DATA     BIT       SPI0CN0_SPIEN
      00000085H   SFRSYM    DATA     BYTE      DAC0H
      000000F0H   SFRSYM    DATA     BYTE      B
      000000BEH   SFRSYM    DATA     BYTE      ADC0H
      000000FFH   SFRSYM    DATA     BYTE      I2C0ADM
      0000008AH   SFRSYM    DATA     BYTE      DAC1H
      00000090H.4 SFRSYM    DATA     BIT       BSP_LED_G
      00000088H.2 SFRSYM    DATA     BIT       DACGCF0_D1AMEN
      0000008CH   SFRSYM    DATA     BYTE      DAC2H
      0000008EH   SFRSYM    DATA     BYTE      DAC3H
      00000088H.6 SFRSYM    DATA     BIT       DACGCF0_D3AMEN
      000000CAH   SFRSYM    DATA     WORD      TMR2RL
      00000084H   SFRSYM    DATA     BYTE      DAC0L
      000000BDH   SFRSYM    DATA     BYTE      ADC0L
      00000092H   SFRSYM    DATA     WORD      TMR3RL
      00000089H   SFRSYM    DATA     BYTE      DAC1L
      000000A2H   SFRSYM    DATA     WORD      TMR4RL
      000000D8H   SFRSYM    DATA     BYTE      PCA0CN0
      0000008BH   SFRSYM    DATA     BYTE      DAC2L
      000000E0H   SFRSYM    DATA     BYTE      ACC
      000000D2H   SFRSYM    DATA     WORD      TMR5RL
      000000D9H   SFRSYM    DATA     BYTE      UART0PCF
      0000008DH   SFRSYM    DATA     BYTE      DAC3L
      000000FBH   SFRSYM    DATA     WORD      PCA0CP0
      000000DAH   SFRSYM    DATA     BYTE      UART1PCF
      000000E9H   SFRSYM    DATA     WORD      PCA0CP1
      00000088H   SFRSYM    DATA     BYTE      DACGCF0
      000000EBH   SFRSYM    DATA     WORD      PCA0CP2
      000000BCH   SFRSYM    DATA     BYTE      I2C0DIN
      00000098H   SFRSYM    DATA     BYTE      DACGCF1
      000000CEH   SFRSYM    DATA     BYTE      CRC0CN0
      000000F4H   SFRSYM    DATA     WORD      PCA0CP3
      0000008CH   SFRSYM    DATA     BYTE      TH0
      000000A2H   SFRSYM    DATA     BYTE      DACGCF2
      00000086H   SFRSYM    DATA     BYTE      CRC0CN1
      000000B8H.4 SFRSYM    DATA     BIT       IP_PS0
      00000084H   SFRSYM    DATA     WORD      PCA0CP4
      000000FAH   SFRSYM    DATA     BYTE      UART1FCT
      0000008DH   SFRSYM    DATA     BYTE      TH1
      000000FAH   SFRSYM    DATA     BYTE      PCA0H
      000000F5H   SFRSYM    DATA     BYTE      I2C0FCT
      00000090H.6 SFRSYM    DATA     BIT       BSP_LED_R
      000000B8H.1 SFRSYM    DATA     BIT       IP_PT0
      000000DDH   SFRSYM    DATA     WORD      PCA0CP5
      000000C7H   SFRSYM    DATA     BYTE      CLIE0
LX51 LINKER/LOCATER V4.66.30.0                                                        04/24/2017  21:26:22  PAGE 37


      000000B8H.3 SFRSYM    DATA     BIT       IP_PT1
      00000088H.3 SFRSYM    DATA     BIT       DACGCF0_D01REFSL
      000000B5H   SFRSYM    DATA     WORD      ADC0ASA
      000000E8H   SFRSYM    DATA     BYTE      CLIF0
      000000C0H.2 SFRSYM    DATA     BIT       SMB0CN0_ARBLOST
      000000B8H.5 SFRSYM    DATA     BIT       IP_PT2
      0000008AH   SFRSYM    DATA     BYTE      TL0
      000000D0H.5 SFRSYM    DATA     BIT       PSW_F0
      000000A8H.6 SFRSYM    DATA     BIT       IE_ESPI0
      0000008BH   SFRSYM    DATA     BYTE      TL1
      000000F9H   SFRSYM    DATA     BYTE      PCA0L
      000000C0H   SFRSYM    DATA     BIT       SMB0CN0_SI
      000000D0H.1 SFRSYM    DATA     BIT       PSW_F1
      00000080H   SFRSYM    DATA     BIT       P0_B0
      000000B8H   SFRSYM    DATA     BIT       IP_PX0
      00000090H   SFRSYM    DATA     BIT       P1_B0
      00000080H.1 SFRSYM    DATA     BIT       P0_B1
      000000B8H.2 SFRSYM    DATA     BIT       IP_PX1
      00000088H.7 SFRSYM    DATA     BIT       DACGCF0_D23REFSL
      0000009EH   SFRSYM    DATA     BYTE      UART1LIN
      0000009BH   SFRSYM    DATA     BYTE      CMP0CN0
      000000C6H   SFRSYM    DATA     BYTE      CLEN0
      00000088H.1 SFRSYM    DATA     BIT       TCON_IE0
      000000A0H   SFRSYM    DATA     BIT       P2_B0
      00000090H.1 SFRSYM    DATA     BIT       P1_B1
      00000080H.2 SFRSYM    DATA     BIT       P0_B2
      000000BFH   SFRSYM    DATA     BYTE      CMP1CN0
      00000099H   SFRSYM    DATA     BYTE      CMP0CN1
      00000088H.3 SFRSYM    DATA     BIT       TCON_IE1
      000000B0H   SFRSYM    DATA     BIT       P3_B0
      000000A0H.1 SFRSYM    DATA     BIT       P2_B1
      00000090H.2 SFRSYM    DATA     BIT       P1_B2
      00000080H.3 SFRSYM    DATA     BIT       P0_B3
      000000C0H   SFRSYM    DATA     BYTE      SMB0CN0
      000000ACH   SFRSYM    DATA     BYTE      CMP1CN1
      000000B0H.1 SFRSYM    DATA     BIT       P3_B1
      000000A0H.2 SFRSYM    DATA     BIT       P2_B2
      00000090H.3 SFRSYM    DATA     BIT       P1_B3
      00000080H.4 SFRSYM    DATA     BIT       P0_B4
      000000B0H.2 SFRSYM    DATA     BIT       P3_B2
      000000A0H.3 SFRSYM    DATA     BIT       P2_B3
      00000090H.4 SFRSYM    DATA     BIT       P1_B4
      00000080H.5 SFRSYM    DATA     BIT       P0_B5
      00000098H   SFRSYM    DATA     BIT       DACGCF1_D0UDIS
      000000D8H.1 SFRSYM    DATA     BIT       UART1FCN1_RXTO0
      000000B0H.3 SFRSYM    DATA     BIT       P3_B3
      000000A0H.4 SFRSYM    DATA     BIT       P2_B4
      00000090H.5 SFRSYM    DATA     BIT       P1_B5
      00000080H.6 SFRSYM    DATA     BIT       P0_B6
      00000098H.1 SFRSYM    DATA     BIT       DACGCF1_D1UDIS
      000000EEH   SFRSYM    DATA     BYTE      EIP1H
      000000D8H.2 SFRSYM    DATA     BIT       UART1FCN1_RXTO1
      000000B0H.4 SFRSYM    DATA     BIT       P3_B4
      000000A0H.5 SFRSYM    DATA     BIT       P2_B5
      00000090H.6 SFRSYM    DATA     BIT       P1_B6
      00000080H.7 SFRSYM    DATA     BIT       P0_B7
      00000098H.2 SFRSYM    DATA     BIT       DACGCF1_D2UDIS
      000000C5H   SFRSYM    DATA     BYTE      SMB0RXLN
      000000F6H   SFRSYM    DATA     BYTE      EIP2H
      000000A0H.6 SFRSYM    DATA     BIT       P2_B6
      00000090H.7 SFRSYM    DATA     BIT       P1_B7
      00000098H.3 SFRSYM    DATA     BIT       DACGCF1_D3UDIS
LX51 LINKER/LOCATER V4.66.30.0                                                        04/24/2017  21:26:22  PAGE 38


      000000B0H.7 SFRSYM    DATA     BIT       P3_B7
      00000083H   SFRSYM    DATA     BYTE      DPH
      000000C4H   SFRSYM    DATA     BYTE      ADC0GTH
      000000C8H.7 SFRSYM    DATA     BIT       TMR2CN0_TF2H
      000000C8H.3 SFRSYM    DATA     BIT       TMR2CN0_T2SPLIT
      000000D0H.6 SFRSYM    DATA     BIT       PSW_AC
      000000F8H   SFRSYM    DATA     BYTE      SPI0CN0
      000000C7H   SFRSYM    DATA     BYTE      HFO0CAL
      00000088H.5 SFRSYM    DATA     BIT       TCON_TF0
      00000098H   SFRSYM    DATA     BIT       SCON0_RI
      000000D6H   SFRSYM    DATA     BYTE      HFO1CAL
      00000082H   SFRSYM    DATA     BYTE      DPL
      00000088H.7 SFRSYM    DATA     BIT       TCON_TF1
      000000C8H   SFRSYM    DATA     BIT       SCON1_RI
      00000099H   SFRSYM    DATA     BYTE      SBUF0
      00000087H   SFRSYM    DATA     BYTE      PCON0
      000000F2H   SFRSYM    DATA     BYTE      IPH
      000000C3H   SFRSYM    DATA     BYTE      ADC0GTL
      00000098H.7 SFRSYM    DATA     BIT       TMR4CN0_TF4H
      00000098H.3 SFRSYM    DATA     BIT       TMR4CN0_T4SPLIT
      000000C8H.6 SFRSYM    DATA     BIT       TMR2CN0_TF2L
      00000098H.1 SFRSYM    DATA     BIT       SCON0_TI
      00000092H   SFRSYM    DATA     BYTE      SBUF1
      000000CDH   SFRSYM    DATA     BYTE      PCON1
      000000C6H   SFRSYM    DATA     BYTE      ADC0LTH
      00000088H   SFRSYM    DATA     BIT       TCON_IT0
      000000C8H.1 SFRSYM    DATA     BIT       SCON1_TI
      000000EFH   SFRSYM    DATA     BYTE      RSTSRC
      000000FDH   SFRSYM    DATA     BYTE      P0MAT
      000000CBH   SFRSYM    DATA     BYTE      CRC0DAT
      000000C0H.7 SFRSYM    DATA     BIT       TMR5CN0_TF5H
      000000C0H.3 SFRSYM    DATA     BIT       TMR5CN0_T5SPLIT
      00000088H.2 SFRSYM    DATA     BIT       TCON_IT1
      000000D7H   SFRSYM    DATA     BYTE      SFRSTACK
      00000098H   SFRSYM    DATA     BYTE      SCON0
      000000F6H   SFRSYM    DATA     BYTE      PRTDRV
      000000EDH   SFRSYM    DATA     BYTE      P1MAT
      000000E8H.3 SFRSYM    DATA     BIT       ADC0CN0_ADWINT
      00000093H   SFRSYM    DATA     BYTE      SMOD1
      000000C8H   SFRSYM    DATA     BYTE      SCON1
      000000FBH   SFRSYM    DATA     BYTE      P2MAT
      00000098H.6 SFRSYM    DATA     BIT       TMR4CN0_TF4L
      000000E8H.4 SFRSYM    DATA     BIT       ADC0CN0_ADBUSY
      000000D6H   SFRSYM    DATA     BYTE      SMB0ADM
      000000C5H   SFRSYM    DATA     BYTE      ADC0LTL
      000000F8H.5 SFRSYM    DATA     BIT       SPI0CN0_MODF
      000000B8H.6 SFRSYM    DATA     BIT       IP_PSPI0
      000000E8H.1 SFRSYM    DATA     BIT       ADC0CN0_ADGN0
      0000009CH   SFRSYM    DATA     BYTE      PCA0CLR
      000000C0H.6 SFRSYM    DATA     BIT       TMR5CN0_TF5L
      000000E8H.2 SFRSYM    DATA     BIT       ADC0CN0_ADGN1
      000000C8H   SFRSYM    DATA     BYTE      TMR2CN0
      00000091H   SFRSYM    DATA     BYTE      TMR3CN0
      000000FDH   SFRSYM    DATA     BYTE      TMR2CN1
      00000098H   SFRSYM    DATA     BYTE      TMR4CN0
      000000FEH   SFRSYM    DATA     BYTE      TMR3CN1
      000000B0H.4 SFRSYM    DATA     BIT       BSP_DISP_EN
      000000C0H   SFRSYM    DATA     BYTE      TMR5CN0
      000000FFH   SFRSYM    DATA     BYTE      TMR4CN1
      000000D7H   SFRSYM    DATA     BYTE      SMB0ADR
      00000088H.4 SFRSYM    DATA     BIT       TCON_TR0
      000000F1H   SFRSYM    DATA     BYTE      TMR5CN1
LX51 LINKER/LOCATER V4.66.30.0                                                        04/24/2017  21:26:22  PAGE 39


      000000C8H.4 SFRSYM    DATA     BIT       TMR2CN0_TF2CEN
      00000088H.6 SFRSYM    DATA     BIT       TCON_TR1
      000000C2H   SFRSYM    DATA     BYTE      SMB0DAT
      000000A0H.6 SFRSYM    DATA     BIT       BSP_DISP_CS
      000000CFH   SFRSYM    DATA     BYTE      TMR2H
      000000A1H   SFRSYM    DATA     BYTE      SPI0CFG
      00000095H   SFRSYM    DATA     BYTE      TMR3H
      000000EFH   SFRSYM    DATA     BYTE      HFOCN
      000000D3H   SFRSYM    DATA     BYTE      CRC0CNT
      000000A5H   SFRSYM    DATA     BYTE      TMR4H
      00000098H.4 SFRSYM    DATA     BIT       TMR4CN0_TF4CEN
      000000D5H   SFRSYM    DATA     BYTE      TMR5H
      000000EFH   SFRSYM    DATA     BYTE      SMB0FCT
      00000096H   SFRSYM    DATA     BYTE      PCA0POL
      000000CEH   SFRSYM    DATA     BYTE      TMR2L
      000000C0H.4 SFRSYM    DATA     BIT       TMR5CN0_TF5CEN
      000000F8H.7 SFRSYM    DATA     BIT       SPI0CN0_SPIF
      00000094H   SFRSYM    DATA     BYTE      TMR3L
      000000A8H.7 SFRSYM    DATA     BIT       IE_EA
      000000A4H   SFRSYM    DATA     BYTE      TMR4L
      000000D4H   SFRSYM    DATA     BYTE      TMR5L
      000000C8H.5 SFRSYM    DATA     BIT       TMR2CN0_TF2LEN
      000000F8H.6 SFRSYM    DATA     BIT       SPI0CN0_WCOL
      000000F8H.2 SFRSYM    DATA     BIT       SPI0CN0_NSSMD0
      000000D0H.7 SFRSYM    DATA     BIT       PSW_CY
      0000009DH   SFRSYM    DATA     BYTE      UART1FCN0
      000000DFH   SFRSYM    DATA     BYTE      SPI0PCF
      000000A3H   SFRSYM    DATA     BYTE      SPI0DAT
      000000ADH   SFRSYM    DATA     BYTE      I2C0FCN0
      000000F8H.3 SFRSYM    DATA     BIT       SPI0CN0_NSSMD1
      000000BDH   SFRSYM    DATA     WORD      ADC0
      000000D8H   SFRSYM    DATA     BYTE      UART1FCN1
      000000ABH   SFRSYM    DATA     BYTE      I2C0FCN1
      000000E8H   SFRSYM    DATA     BIT       CLIF0_C0FIF
      00000098H.5 SFRSYM    DATA     BIT       TMR4CN0_TF4LEN
      000000E8H.2 SFRSYM    DATA     BIT       CLIF0_C1FIF
      000000D0H   SFRSYM    DATA     BYTE      PSW
      000000F7H   SFRSYM    DATA     BYTE      PCA0PWM
      000000E8H.4 SFRSYM    DATA     BIT       CLIF0_C2FIF
      000000F7H   SFRSYM    DATA     BYTE      SPI0FCT
      000000B6H   SFRSYM    DATA     BYTE      REVID
      000000C0H.5 SFRSYM    DATA     BIT       TMR5CN0_TF5LEN
      000000E8H.6 SFRSYM    DATA     BIT       CLIF0_C3FIF
      000000B7H   SFRSYM    DATA     BYTE      FLKEY
      01001445H   SYMBOL    CONST    ---       thinfont_bits
      01000F2AH   SYMBOL    CODE     ---       _RENDER_byte
      00000007H   SYMBOL    DATA     BYTE      len

      0100135CH   BLOCK     CODE     ---       LVL=0
      00000006H   SYMBOL    DATA     ---       line
      0100135CH   BLOCK     CODE     NEAR LAB  LVL=1
      00000005H   SYMBOL    DATA     BYTE      i
      ---         BLOCKEND  ---      ---       LVL=1
      0100135CH   LINE      CODE     ---       #69
      0100135CH   LINE      CODE     ---       #71
      0100135CH   LINE      CODE     ---       #74
      0100135EH   LINE      CODE     ---       #75
      0100135EH   LINE      CODE     ---       #76
      01001368H   LINE      CODE     ---       #77
      0100136CH   LINE      CODE     ---       #78
      ---         BLOCKEND  ---      ---       LVL=0
      00000082H   SYMBOL    DATA     ---       line
LX51 LINKER/LOCATER V4.66.30.0                                                        04/24/2017  21:26:22  PAGE 40


      00000005H   SYMBOL    DATA     BYTE      posx
      00000005H   SYMBOL    DATA     BYTE      xstart
      00000003H   SYMBOL    DATA     BYTE      xstop
      00000004H   SYMBOL    DATA     BYTE      x
      00000007H   SYMBOL    DATA     BYTE      swap

      01000F2AH   BLOCK     CODE     ---       LVL=0
      00000006H   SYMBOL    DATA     ---       line
      00000005H   SYMBOL    DATA     BYTE      posx
      00000003H   SYMBOL    DATA     BYTE      enlarged_font_byte
      01000F2AH   BLOCK     CODE     NEAR LAB  LVL=1
      00000040H   SYMBOL    DATA     ---       line16
      ---         BLOCKEND  ---      ---       LVL=1
      01000F2AH   LINE      CODE     ---       #250
      01000F2AH   LINE      CODE     ---       #254
      01000F2AH   LINE      CODE     ---       #262
      01000F37H   LINE      CODE     ---       #278
      01000F68H   LINE      CODE     ---       #279
      01000F92H   LINE      CODE     ---       #281
      ---         BLOCKEND  ---      ---       LVL=0

      01000AA1H   BLOCK     CODE     ---       LVL=0
      00000032H   SYMBOL    DATA     ---       line
      00000034H   SYMBOL    DATA     BYTE      posx
      00000035H   SYMBOL    DATA     BYTE      posy
      00000036H   SYMBOL    DATA     ---       str
      00000039H   SYMBOL    DATA     BYTE      fontScale
      01000AA9H   BLOCK     CODE     NEAR LAB  LVL=1
      0000003AH   SYMBOL    DATA     CHAR      c
      00000003H   SYMBOL    DATA     BYTE      font_byte
      00000002H   SYMBOL    DATA     BYTE      i
      0000003BH   SYMBOL    DATA     BYTE      shiftOffset
      0000003CH   SYMBOL    DATA     DWORD     enlarged_font_byte
      ---         BLOCKEND  ---      ---       LVL=1
      01000AA1H   LINE      CODE     ---       #299
      01000AA9H   LINE      CODE     ---       #305
      01000AA9H   LINE      CODE     ---       #313
      01000AB7H   LINE      CODE     ---       #314
      01000AB7H   LINE      CODE     ---       #315
      01000AB9H   LINE      CODE     ---       #318
      01000AC9H   LINE      CODE     ---       #319
      01000AC9H   LINE      CODE     ---       #320
      01000ACCH   LINE      CODE     ---       #321
      01000ACCH   LINE      CODE     ---       #324
      01000ADEH   LINE      CODE     ---       #325
      01000ADEH   LINE      CODE     ---       #326
      01000ADEH   LINE      CODE     ---       #327
      01000ADEH   LINE      CODE     ---       #328
      01000AE1H   LINE      CODE     ---       #329
      01000AE1H   LINE      CODE     ---       #331
      01000B05H   LINE      CODE     ---       #333
      01000B0EH   LINE      CODE     ---       #334
      01000B0FH   LINE      CODE     ---       #335
      01000B0FH   LINE      CODE     ---       #336
      01000B16H   LINE      CODE     ---       #337
      01000B16H   LINE      CODE     ---       #338
      01000B1BH   LINE      CODE     ---       #339
      01000B1BH   LINE      CODE     ---       #340
      01000B36H   LINE      CODE     ---       #341
      01000B38H   LINE      CODE     ---       #342
      01000B3DH   LINE      CODE     ---       #343
      01000B3DH   LINE      CODE     ---       #344
LX51 LINKER/LOCATER V4.66.30.0                                                        04/24/2017  21:26:22  PAGE 41


      01000B58H   LINE      CODE     ---       #345
      01000B5AH   LINE      CODE     ---       #346
      01000B67H   LINE      CODE     ---       #347
      01000B67H   LINE      CODE     ---       #348
      01000B7AH   LINE      CODE     ---       #349
      01000B7CH   LINE      CODE     ---       #351
      01000B7CH   LINE      CODE     ---       #352
      01000B91H   LINE      CODE     ---       #353
      01000B91H   LINE      CODE     ---       #354
      01000B93H   LINE      CODE     ---       #356
      01000B93H   LINE      CODE     ---       #357
      01000BAAH   LINE      CODE     ---       #358
      01000BAAH   LINE      CODE     ---       #359
      01000BAEH   LINE      CODE     ---       #360
      01000BB7H   LINE      CODE     ---       #362
      01000BBFH   LINE      CODE     ---       #363
      01000BBFH   LINE      CODE     ---       #364
      01000BCBH   LINE      CODE     ---       #365
      01000BEFH   LINE      CODE     ---       #366
      01000BF2H   LINE      CODE     ---       #368
      01000BFDH   LINE      CODE     ---       #369
      01000C07H   LINE      CODE     ---       #370
      01000C0AH   LINE      CODE     ---       #371
      ---         BLOCKEND  ---      ---       LVL=0
      00000001H   SYMBOL    DATA     BYTE      posx
      00000005H   SYMBOL    DATA     BYTE      i
      00000001H   SYMBOL    DATA     BYTE      posx
      00000005H   SYMBOL    DATA     BYTE      i

      ---         MODULE    ---      ---       SPI
      01000FF6H   PUBLIC    CODE     ---       TIMER2_ISR
      01001348H   PUBLIC    CODE     ---       SPI0_transferCompleteCb
      0100117BH   PUBLIC    CODE     ---       _SPI_StartTransfer
      000000A2H   SFRSYM    DATA     BYTE      SPI0CKR
      00000080H   SFRSYM    DATA     BYTE      P0
      000000C8H.6 SFRSYM    DATA     BIT       SCON1_PERR
      000000D0H.2 SFRSYM    DATA     BIT       PSW_OV
      00000086H   SFRSYM    DATA     BYTE      XOSC0CN
      00000090H   SFRSYM    DATA     BYTE      P1
      000000F8H.1 SFRSYM    DATA     BIT       SPI0CN0_TXNF
      00000097H   SFRSYM    DATA     BYTE      WDTCN
      000000A0H   SFRSYM    DATA     BYTE      P2
      000000B0H   SFRSYM    DATA     BYTE      P3
      000000C0H.7 SFRSYM    DATA     BIT       SMB0CN0_MASTER
      000000F9H   SFRSYM    DATA     WORD      PCA0
      000000E6H   SFRSYM    DATA     BYTE      EIE1
      000000C0H.1 SFRSYM    DATA     BIT       SMB0CN0_ACK
      000000E8H.1 SFRSYM    DATA     BIT       CLIF0_C0RIF
      000000F3H   SFRSYM    DATA     BYTE      EIE2
      000000E8H.3 SFRSYM    DATA     BIT       CLIF0_C1RIF
      000000E8H.5 SFRSYM    DATA     BIT       CLIF0_C2RIF
      0000008FH   SFRSYM    DATA     BYTE      PSCTL
      00000080H.2 SFRSYM    DATA     BIT       BSP_PB0
      000000E8H.7 SFRSYM    DATA     BIT       CLIF0_C3RIF
      000000E4H   SFRSYM    DATA     BYTE      IT01CF
      00000080H.3 SFRSYM    DATA     BIT       BSP_PB1
      000000C0H.6 SFRSYM    DATA     BIT       SMB0CN0_TXMODE
      000000ADH   SFRSYM    DATA     BYTE      DERIVID
      000000A7H   SFRSYM    DATA     BYTE      SFRPAGE
      000000A4H   SFRSYM    DATA     BYTE      P0MDOUT
      000000A5H   SFRSYM    DATA     BYTE      P1MDOUT
      000000E8H.5 SFRSYM    DATA     BIT       ADC0CN0_ADINT
LX51 LINKER/LOCATER V4.66.30.0                                                        04/24/2017  21:26:22  PAGE 42


      000000CBH   SFRSYM    DATA     BYTE      TMR2RLH
      000000A6H   SFRSYM    DATA     BYTE      P2MDOUT
      000000A8H   SFRSYM    DATA     BYTE      IE
      00000093H   SFRSYM    DATA     BYTE      TMR3RLH
      0000009CH   SFRSYM    DATA     BYTE      P3MDOUT
      000000A3H   SFRSYM    DATA     BYTE      TMR4RLH
      000000BBH   SFRSYM    DATA     BYTE      EIP1
      000000D3H   SFRSYM    DATA     BYTE      TMR5RLH
      000000EDH   SFRSYM    DATA     BYTE      EIP2
      00000098H.2 SFRSYM    DATA     BIT       SCON0_RB8
      000000CAH   SFRSYM    DATA     BYTE      TMR2RLL
      000000FCH   SFRSYM    DATA     BYTE      PCA0CPH0
      00000092H   SFRSYM    DATA     BYTE      TMR3RLL
      000000EAH   SFRSYM    DATA     BYTE      PCA0CPH1
      00000098H.3 SFRSYM    DATA     BIT       SCON0_TB8
      000000F0H   SFRSYM    DATA     BIT       B_B0
      00000082H   SFRSYM    DATA     WORD      DP
      000000A2H   SFRSYM    DATA     BYTE      TMR4RLL
      000000ECH   SFRSYM    DATA     BYTE      PCA0CPH2
      000000F0H.1 SFRSYM    DATA     BIT       B_B1
      000000C3H   SFRSYM    DATA     WORD      ADC0GT
      000000D2H   SFRSYM    DATA     BYTE      TMR5RLL
      000000F5H   SFRSYM    DATA     BYTE      PCA0CPH3
      000000BDH   SFRSYM    DATA     BYTE      I2C0SLAD
      000000D8H.3 SFRSYM    DATA     BIT       UART1FCN1_RFRQ
      000000F0H.2 SFRSYM    DATA     BIT       B_B2
      000000BCH   SFRSYM    DATA     BYTE      SFRPGCN
      000000FBH   SFRSYM    DATA     BYTE      PCA0CPL0
      00000085H   SFRSYM    DATA     BYTE      PCA0CPH4
      000000F0H.3 SFRSYM    DATA     BIT       B_B3
      000000D9H   SFRSYM    DATA     BYTE      PCA0MD
      000000DAH   SFRSYM    DATA     BYTE      PCA0CPM0
      000000E9H   SFRSYM    DATA     BYTE      PCA0CPL1
      000000DEH   SFRSYM    DATA     BYTE      PCA0CPH5
      000000D8H.7 SFRSYM    DATA     BIT       UART1FCN1_TFRQ
      000000F0H.4 SFRSYM    DATA     BIT       B_B4
      000000DBH   SFRSYM    DATA     BYTE      PCA0CPM1
      000000EBH   SFRSYM    DATA     BYTE      PCA0CPL2
      000000A1H   SFRSYM    DATA     BYTE      ADC0ASCF
      000000B6H   SFRSYM    DATA     BYTE      ADC0ASAH
      000000F0H.5 SFRSYM    DATA     BIT       B_B5
      000000E8H.6 SFRSYM    DATA     BIT       ADC0CN0_IPOEN
      000000E8H   SFRSYM    DATA     BIT       ADC0CN0_TEMPE
      000000DCH   SFRSYM    DATA     BYTE      PCA0CPM2
      000000F4H   SFRSYM    DATA     BYTE      PCA0CPL3
      000000B8H   SFRSYM    DATA     BYTE      IP
      000000F0H.6 SFRSYM    DATA     BIT       B_B6
      000000C5H   SFRSYM    DATA     WORD      ADC0LT
      000000AEH   SFRSYM    DATA     BYTE      PCA0CPM3
      00000084H   SFRSYM    DATA     BYTE      PCA0CPL4
      000000D8H.6 SFRSYM    DATA     BIT       UART1FCN1_TXNF
      00000098H.5 SFRSYM    DATA     BIT       SCON0_MCE
      000000F0H.7 SFRSYM    DATA     BIT       B_B7
      000000AFH   SFRSYM    DATA     BYTE      PCA0CPM4
      000000DDH   SFRSYM    DATA     BYTE      PCA0CPL5
      000000C3H   SFRSYM    DATA     BYTE      SMB0FCN0
      000000CCH   SFRSYM    DATA     BYTE      PCA0CPM5
      000000B5H   SFRSYM    DATA     BYTE      ADC0ASAL
      000000E1H   SFRSYM    DATA     BYTE      XBR0
      000000C4H   SFRSYM    DATA     BYTE      SMB0FCN1
      000000C1H   SFRSYM    DATA     BYTE      SMB0CF
      000000E2H   SFRSYM    DATA     BYTE      XBR1
LX51 LINKER/LOCATER V4.66.30.0                                                        04/24/2017  21:26:22  PAGE 43


      000000C1H   SFRSYM    DATA     BYTE      PFE0CN
      000000E7H   SFRSYM    DATA     BYTE      EMI0CN
      000000C0H.5 SFRSYM    DATA     BIT       SMB0CN0_STA
      000000E3H   SFRSYM    DATA     BYTE      XBR2
      000000B1H   SFRSYM    DATA     BYTE      CLU0CF
      000000BBH   SFRSYM    DATA     BYTE      ADC0MX
      000000E0H   SFRSYM    DATA     BIT       ACC_ACC0
      000000D1H   SFRSYM    DATA     BYTE      REF0CN
      000000B3H   SFRSYM    DATA     BYTE      CLU1CF
      0000008EH   SFRSYM    DATA     BYTE      CKCON0
      000000E0H.1 SFRSYM    DATA     BIT       ACC_ACC1
      000000C9H   SFRSYM    DATA     BYTE      REG0CN
      000000CAH   SFRSYM    DATA     BYTE      CRC0IN
      000000B6H   SFRSYM    DATA     BYTE      CLU2CF
      000000A6H   SFRSYM    DATA     BYTE      CKCON1
      000000C8H.2 SFRSYM    DATA     BIT       TMR2CN0_TR2
      000000E0H.2 SFRSYM    DATA     BIT       ACC_ACC2
      000000BFH   SFRSYM    DATA     BYTE      CLU3CF
      000000E0H.3 SFRSYM    DATA     BIT       ACC_ACC3
      00000081H   SFRSYM    DATA     BYTE      SP
      0000009DH   SFRSYM    DATA     BYTE      CMP0MD
      000000E0H.4 SFRSYM    DATA     BIT       ACC_ACC4
      000000B1H   SFRSYM    DATA     BYTE      LFO0CN
      000000ABH   SFRSYM    DATA     BYTE      CMP1MD
      000000D8H   SFRSYM    DATA     BIT       PCA0CN0_CCF0
      000000E0H.5 SFRSYM    DATA     BIT       ACC_ACC5
      00000098H.2 SFRSYM    DATA     BIT       TMR4CN0_TR4
      000000D8H.1 SFRSYM    DATA     BIT       PCA0CN0_CCF1
      000000E0H.6 SFRSYM    DATA     BIT       ACC_ACC6
      000000CEH   SFRSYM    DATA     WORD      TMR2
      0000009AH   SFRSYM    DATA     BYTE      SPI0FCN0
      000000C7H   SFRSYM    DATA     BYTE      ADC0ASCT
      000000D8H.2 SFRSYM    DATA     BIT       PCA0CN0_CCF2
      000000E0H.7 SFRSYM    DATA     BIT       ACC_ACC7
      00000094H   SFRSYM    DATA     WORD      TMR3
      0000009BH   SFRSYM    DATA     BYTE      SPI0FCN1
      000000C0H.2 SFRSYM    DATA     BIT       TMR5CN0_TR5
      000000D8H.3 SFRSYM    DATA     BIT       PCA0CN0_CCF3
      000000A4H   SFRSYM    DATA     WORD      TMR4
      00000094H   SFRSYM    DATA     BYTE      SBCON1
      000000D8H.4 SFRSYM    DATA     BIT       PCA0CN0_CCF4
      000000D4H   SFRSYM    DATA     WORD      TMR5
      000000C0H.3 SFRSYM    DATA     BIT       SMB0CN0_ACKRQ
      000000D8H.5 SFRSYM    DATA     BIT       PCA0CN0_CCF5
      000000FFH   SFRSYM    DATA     BYTE      VDM0CN
      000000F1H   SFRSYM    DATA     BYTE      P0MDIN
      000000AFH   SFRSYM    DATA     BYTE      CLU0FN
      00000098H.4 SFRSYM    DATA     BIT       SCON0_REN
      000000ACH   SFRSYM    DATA     BYTE      SMB0TC
      000000F2H   SFRSYM    DATA     BYTE      P1MDIN
      000000B2H   SFRSYM    DATA     BYTE      CLU1FN
      000000C8H.4 SFRSYM    DATA     BIT       SCON1_REN
      000000F3H   SFRSYM    DATA     BYTE      P2MDIN
      000000B5H   SFRSYM    DATA     BYTE      CLU2FN
      000000C0H.4 SFRSYM    DATA     BIT       SMB0CN0_STO
      000000F4H   SFRSYM    DATA     BYTE      P3MDIN
      000000B9H   SFRSYM    DATA     BYTE      I2C0STAT
      000000BBH   SFRSYM    DATA     BYTE      I2C0DOUT
      000000BEH   SFRSYM    DATA     BYTE      CLU3FN
      00000096H   SFRSYM    DATA     BYTE      SBRLH1
      000000FEH   SFRSYM    DATA     BYTE      P0MASK
      000000D8H.5 SFRSYM    DATA     BIT       UART1FCN1_TXHOLD
LX51 LINKER/LOCATER V4.66.30.0                                                        04/24/2017  21:26:22  PAGE 44


      000000EEH   SFRSYM    DATA     BYTE      P1MASK
      000000FCH   SFRSYM    DATA     BYTE      P2MASK
      000000D0H.3 SFRSYM    DATA     BIT       PSW_RS0
      000000D8H.7 SFRSYM    DATA     BIT       PCA0CN0_CF
      0000009EH   SFRSYM    DATA     BYTE      PCA0CENT
      000000BAH   SFRSYM    DATA     BYTE      I2C0CN0
      000000D2H   SFRSYM    DATA     BYTE      CRC0ST
      000000F8H.4 SFRSYM    DATA     BIT       SPI0CN0_RXOVRN
      000000D0H.4 SFRSYM    DATA     BIT       PSW_RS1
      00000095H   SFRSYM    DATA     BYTE      SBRLL1
      000000C8H.2 SFRSYM    DATA     BIT       SCON1_RBX
      00000091H   SFRSYM    DATA     BYTE      DAC0CF0
      000000BCH   SFRSYM    DATA     BYTE      ADC0CF0
      000000C8H   SFRSYM    DATA     BIT       TMR2CN0_T2XCLK0
      00000093H   SFRSYM    DATA     BYTE      DAC1CF0
      00000092H   SFRSYM    DATA     BYTE      DAC0CF1
      000000B9H   SFRSYM    DATA     BYTE      ADC0CF1
      000000C8H.1 SFRSYM    DATA     BIT       TMR2CN0_T2XCLK1
      000000C8H.3 SFRSYM    DATA     BIT       SCON1_TBX
      000000E8H.7 SFRSYM    DATA     BIT       ADC0CN0_ADEN
      00000089H   SFRSYM    DATA     BYTE      TMOD
      00000088H   SFRSYM    DATA     BYTE      TCON
      00000095H   SFRSYM    DATA     BYTE      DAC2CF0
      00000094H   SFRSYM    DATA     BYTE      DAC1CF1
      000000DFH   SFRSYM    DATA     BYTE      ADC0CF2
      0000009AH   SFRSYM    DATA     BYTE      DAC3CF0
      00000096H   SFRSYM    DATA     BYTE      DAC2CF1
      000000CFH   SFRSYM    DATA     BYTE      CRC0FLIP
      000000D0H   SFRSYM    DATA     BIT       PSW_PARITY
      000000A8H.4 SFRSYM    DATA     BIT       IE_ES0
      0000009CH   SFRSYM    DATA     BYTE      DAC3CF1
      0000009FH   SFRSYM    DATA     BYTE      CMP0MX
      00000098H   SFRSYM    DATA     BIT       TMR4CN0_T4XCLK0
      000000A8H.1 SFRSYM    DATA     BIT       IE_ET0
      000000AAH   SFRSYM    DATA     BYTE      CMP1MX
      00000098H.1 SFRSYM    DATA     BIT       TMR4CN0_T4XCLK1
      000000A8H.3 SFRSYM    DATA     BIT       IE_ET1
      000000D4H   SFRSYM    DATA     BYTE      P0SKIP
      000000D1H   SFRSYM    DATA     BYTE      CLOUT0
      00000090H.7 SFRSYM    DATA     BIT       BSP_JOYSTICK
      000000D8H   SFRSYM    DATA     BIT       UART1FCN1_RIE
      000000C0H   SFRSYM    DATA     BIT       TMR5CN0_T5XCLK0
      000000A8H.5 SFRSYM    DATA     BIT       IE_ET2
      00000088H   SFRSYM    DATA     BIT       DACGCF0_D1SRC0
      000000D5H   SFRSYM    DATA     BYTE      P1SKIP
      000000C0H.1 SFRSYM    DATA     BIT       TMR5CN0_T5XCLK1
      00000088H.1 SFRSYM    DATA     BIT       DACGCF0_D1SRC1
      000000CCH   SFRSYM    DATA     BYTE      P2SKIP
      00000084H   SFRSYM    DATA     BYTE      CLU0MX
      000000E8H   SFRSYM    DATA     BYTE      ADC0CN0
      000000D8H.4 SFRSYM    DATA     BIT       UART1FCN1_TIE
      000000A8H   SFRSYM    DATA     BIT       IE_EX0
      00000088H.4 SFRSYM    DATA     BIT       DACGCF0_D3SRC0
      00000085H   SFRSYM    DATA     BYTE      CLU1MX
      000000B2H   SFRSYM    DATA     BYTE      ADC0CN1
      000000D8H.6 SFRSYM    DATA     BIT       PCA0CN0_CR
      000000A8H.2 SFRSYM    DATA     BIT       IE_EX1
      00000088H.5 SFRSYM    DATA     BIT       DACGCF0_D3SRC1
      00000091H   SFRSYM    DATA     BYTE      CLU2MX
      000000B3H   SFRSYM    DATA     BYTE      ADC0CN2
      00000090H.5 SFRSYM    DATA     BIT       BSP_LED_B
      000000C8H.7 SFRSYM    DATA     BIT       SCON1_OVR
LX51 LINKER/LOCATER V4.66.30.0                                                        04/24/2017  21:26:22  PAGE 45


      000000AAH   SFRSYM    DATA     BYTE      PSTAT0
      000000AEH   SFRSYM    DATA     BYTE      CLU3MX
      000000A0H.2 SFRSYM    DATA     BIT       BSP_BC_EN
      00000098H.7 SFRSYM    DATA     BIT       SCON0_SMODE
      000000B5H   SFRSYM    DATA     BYTE      DEVICEID
      000000A9H   SFRSYM    DATA     BYTE      CLKSEL
      000000F8H   SFRSYM    DATA     BIT       SPI0CN0_SPIEN
      00000085H   SFRSYM    DATA     BYTE      DAC0H
      000000F0H   SFRSYM    DATA     BYTE      B
      000000BEH   SFRSYM    DATA     BYTE      ADC0H
      000000FFH   SFRSYM    DATA     BYTE      I2C0ADM
      0000008AH   SFRSYM    DATA     BYTE      DAC1H
      00000090H.4 SFRSYM    DATA     BIT       BSP_LED_G
      00000088H.2 SFRSYM    DATA     BIT       DACGCF0_D1AMEN
      0000008CH   SFRSYM    DATA     BYTE      DAC2H
      0000008EH   SFRSYM    DATA     BYTE      DAC3H
      00000088H.6 SFRSYM    DATA     BIT       DACGCF0_D3AMEN
      000000CAH   SFRSYM    DATA     WORD      TMR2RL
      00000084H   SFRSYM    DATA     BYTE      DAC0L
      000000BDH   SFRSYM    DATA     BYTE      ADC0L
      00000092H   SFRSYM    DATA     WORD      TMR3RL
      00000089H   SFRSYM    DATA     BYTE      DAC1L
      000000A2H   SFRSYM    DATA     WORD      TMR4RL
      000000D8H   SFRSYM    DATA     BYTE      PCA0CN0
      0000008BH   SFRSYM    DATA     BYTE      DAC2L
      000000E0H   SFRSYM    DATA     BYTE      ACC
      000000D2H   SFRSYM    DATA     WORD      TMR5RL
      000000D9H   SFRSYM    DATA     BYTE      UART0PCF
      0000008DH   SFRSYM    DATA     BYTE      DAC3L
      000000FBH   SFRSYM    DATA     WORD      PCA0CP0
      000000DAH   SFRSYM    DATA     BYTE      UART1PCF
      000000E9H   SFRSYM    DATA     WORD      PCA0CP1
      00000088H   SFRSYM    DATA     BYTE      DACGCF0
      000000EBH   SFRSYM    DATA     WORD      PCA0CP2
      000000BCH   SFRSYM    DATA     BYTE      I2C0DIN
      00000098H   SFRSYM    DATA     BYTE      DACGCF1
      000000CEH   SFRSYM    DATA     BYTE      CRC0CN0
      000000F4H   SFRSYM    DATA     WORD      PCA0CP3
      0000008CH   SFRSYM    DATA     BYTE      TH0
      000000A2H   SFRSYM    DATA     BYTE      DACGCF2
      00000086H   SFRSYM    DATA     BYTE      CRC0CN1
      000000B8H.4 SFRSYM    DATA     BIT       IP_PS0
      00000084H   SFRSYM    DATA     WORD      PCA0CP4
      000000FAH   SFRSYM    DATA     BYTE      UART1FCT
      0000008DH   SFRSYM    DATA     BYTE      TH1
      000000FAH   SFRSYM    DATA     BYTE      PCA0H
      000000F5H   SFRSYM    DATA     BYTE      I2C0FCT
      00000090H.6 SFRSYM    DATA     BIT       BSP_LED_R
      000000B8H.1 SFRSYM    DATA     BIT       IP_PT0
      000000DDH   SFRSYM    DATA     WORD      PCA0CP5
      000000C7H   SFRSYM    DATA     BYTE      CLIE0
      000000B8H.3 SFRSYM    DATA     BIT       IP_PT1
      00000088H.3 SFRSYM    DATA     BIT       DACGCF0_D01REFSL
      000000B5H   SFRSYM    DATA     WORD      ADC0ASA
      000000E8H   SFRSYM    DATA     BYTE      CLIF0
      000000C0H.2 SFRSYM    DATA     BIT       SMB0CN0_ARBLOST
      000000B8H.5 SFRSYM    DATA     BIT       IP_PT2
      0000008AH   SFRSYM    DATA     BYTE      TL0
      000000D0H.5 SFRSYM    DATA     BIT       PSW_F0
      000000A8H.6 SFRSYM    DATA     BIT       IE_ESPI0
      0000008BH   SFRSYM    DATA     BYTE      TL1
      000000F9H   SFRSYM    DATA     BYTE      PCA0L
LX51 LINKER/LOCATER V4.66.30.0                                                        04/24/2017  21:26:22  PAGE 46


      000000C0H   SFRSYM    DATA     BIT       SMB0CN0_SI
      000000D0H.1 SFRSYM    DATA     BIT       PSW_F1
      00000080H   SFRSYM    DATA     BIT       P0_B0
      000000B8H   SFRSYM    DATA     BIT       IP_PX0
      00000090H   SFRSYM    DATA     BIT       P1_B0
      00000080H.1 SFRSYM    DATA     BIT       P0_B1
      000000B8H.2 SFRSYM    DATA     BIT       IP_PX1
      00000088H.7 SFRSYM    DATA     BIT       DACGCF0_D23REFSL
      0000009EH   SFRSYM    DATA     BYTE      UART1LIN
      0000009BH   SFRSYM    DATA     BYTE      CMP0CN0
      000000C6H   SFRSYM    DATA     BYTE      CLEN0
      00000088H.1 SFRSYM    DATA     BIT       TCON_IE0
      000000A0H   SFRSYM    DATA     BIT       P2_B0
      00000090H.1 SFRSYM    DATA     BIT       P1_B1
      00000080H.2 SFRSYM    DATA     BIT       P0_B2
      000000BFH   SFRSYM    DATA     BYTE      CMP1CN0
      00000099H   SFRSYM    DATA     BYTE      CMP0CN1
      00000088H.3 SFRSYM    DATA     BIT       TCON_IE1
      000000B0H   SFRSYM    DATA     BIT       P3_B0
      000000A0H.1 SFRSYM    DATA     BIT       P2_B1
      00000090H.2 SFRSYM    DATA     BIT       P1_B2
      00000080H.3 SFRSYM    DATA     BIT       P0_B3
      000000C0H   SFRSYM    DATA     BYTE      SMB0CN0
      000000ACH   SFRSYM    DATA     BYTE      CMP1CN1
      000000B0H.1 SFRSYM    DATA     BIT       P3_B1
      000000A0H.2 SFRSYM    DATA     BIT       P2_B2
      00000090H.3 SFRSYM    DATA     BIT       P1_B3
      00000080H.4 SFRSYM    DATA     BIT       P0_B4
      000000B0H.2 SFRSYM    DATA     BIT       P3_B2
      000000A0H.3 SFRSYM    DATA     BIT       P2_B3
      00000090H.4 SFRSYM    DATA     BIT       P1_B4
      00000080H.5 SFRSYM    DATA     BIT       P0_B5
      00000098H   SFRSYM    DATA     BIT       DACGCF1_D0UDIS
      000000D8H.1 SFRSYM    DATA     BIT       UART1FCN1_RXTO0
      000000B0H.3 SFRSYM    DATA     BIT       P3_B3
      000000A0H.4 SFRSYM    DATA     BIT       P2_B4
      00000090H.5 SFRSYM    DATA     BIT       P1_B5
      00000080H.6 SFRSYM    DATA     BIT       P0_B6
      00000098H.1 SFRSYM    DATA     BIT       DACGCF1_D1UDIS
      000000EEH   SFRSYM    DATA     BYTE      EIP1H
      000000D8H.2 SFRSYM    DATA     BIT       UART1FCN1_RXTO1
      000000B0H.4 SFRSYM    DATA     BIT       P3_B4
      000000A0H.5 SFRSYM    DATA     BIT       P2_B5
      00000090H.6 SFRSYM    DATA     BIT       P1_B6
      00000080H.7 SFRSYM    DATA     BIT       P0_B7
      00000098H.2 SFRSYM    DATA     BIT       DACGCF1_D2UDIS
      000000C5H   SFRSYM    DATA     BYTE      SMB0RXLN
      000000F6H   SFRSYM    DATA     BYTE      EIP2H
      000000A0H.6 SFRSYM    DATA     BIT       P2_B6
      00000090H.7 SFRSYM    DATA     BIT       P1_B7
      00000098H.3 SFRSYM    DATA     BIT       DACGCF1_D3UDIS
      000000B0H.7 SFRSYM    DATA     BIT       P3_B7
      00000083H   SFRSYM    DATA     BYTE      DPH
      000000C4H   SFRSYM    DATA     BYTE      ADC0GTH
      000000C8H.7 SFRSYM    DATA     BIT       TMR2CN0_TF2H
      000000C8H.3 SFRSYM    DATA     BIT       TMR2CN0_T2SPLIT
      000000D0H.6 SFRSYM    DATA     BIT       PSW_AC
      000000F8H   SFRSYM    DATA     BYTE      SPI0CN0
      000000C7H   SFRSYM    DATA     BYTE      HFO0CAL
      00000088H.5 SFRSYM    DATA     BIT       TCON_TF0
      00000098H   SFRSYM    DATA     BIT       SCON0_RI
      000000D6H   SFRSYM    DATA     BYTE      HFO1CAL
LX51 LINKER/LOCATER V4.66.30.0                                                        04/24/2017  21:26:22  PAGE 47


      00000082H   SFRSYM    DATA     BYTE      DPL
      00000088H.7 SFRSYM    DATA     BIT       TCON_TF1
      000000C8H   SFRSYM    DATA     BIT       SCON1_RI
      00000099H   SFRSYM    DATA     BYTE      SBUF0
      00000087H   SFRSYM    DATA     BYTE      PCON0
      000000F2H   SFRSYM    DATA     BYTE      IPH
      000000C3H   SFRSYM    DATA     BYTE      ADC0GTL
      00000098H.7 SFRSYM    DATA     BIT       TMR4CN0_TF4H
      00000098H.3 SFRSYM    DATA     BIT       TMR4CN0_T4SPLIT
      000000C8H.6 SFRSYM    DATA     BIT       TMR2CN0_TF2L
      00000098H.1 SFRSYM    DATA     BIT       SCON0_TI
      00000092H   SFRSYM    DATA     BYTE      SBUF1
      000000CDH   SFRSYM    DATA     BYTE      PCON1
      000000C6H   SFRSYM    DATA     BYTE      ADC0LTH
      00000088H   SFRSYM    DATA     BIT       TCON_IT0
      000000C8H.1 SFRSYM    DATA     BIT       SCON1_TI
      000000EFH   SFRSYM    DATA     BYTE      RSTSRC
      000000FDH   SFRSYM    DATA     BYTE      P0MAT
      000000CBH   SFRSYM    DATA     BYTE      CRC0DAT
      000000C0H.7 SFRSYM    DATA     BIT       TMR5CN0_TF5H
      000000C0H.3 SFRSYM    DATA     BIT       TMR5CN0_T5SPLIT
      00000088H.2 SFRSYM    DATA     BIT       TCON_IT1
      000000D7H   SFRSYM    DATA     BYTE      SFRSTACK
      00000098H   SFRSYM    DATA     BYTE      SCON0
      000000F6H   SFRSYM    DATA     BYTE      PRTDRV
      000000EDH   SFRSYM    DATA     BYTE      P1MAT
      000000E8H.3 SFRSYM    DATA     BIT       ADC0CN0_ADWINT
      00000093H   SFRSYM    DATA     BYTE      SMOD1
      000000C8H   SFRSYM    DATA     BYTE      SCON1
      000000FBH   SFRSYM    DATA     BYTE      P2MAT
      00000098H.6 SFRSYM    DATA     BIT       TMR4CN0_TF4L
      000000E8H.4 SFRSYM    DATA     BIT       ADC0CN0_ADBUSY
      000000D6H   SFRSYM    DATA     BYTE      SMB0ADM
      000000C5H   SFRSYM    DATA     BYTE      ADC0LTL
      000000F8H.5 SFRSYM    DATA     BIT       SPI0CN0_MODF
      000000B8H.6 SFRSYM    DATA     BIT       IP_PSPI0
      000000E8H.1 SFRSYM    DATA     BIT       ADC0CN0_ADGN0
      0000009CH   SFRSYM    DATA     BYTE      PCA0CLR
      000000C0H.6 SFRSYM    DATA     BIT       TMR5CN0_TF5L
      000000E8H.2 SFRSYM    DATA     BIT       ADC0CN0_ADGN1
      000000C8H   SFRSYM    DATA     BYTE      TMR2CN0
      00000091H   SFRSYM    DATA     BYTE      TMR3CN0
      000000FDH   SFRSYM    DATA     BYTE      TMR2CN1
      00000098H   SFRSYM    DATA     BYTE      TMR4CN0
      000000FEH   SFRSYM    DATA     BYTE      TMR3CN1
      000000B0H.4 SFRSYM    DATA     BIT       BSP_DISP_EN
      000000C0H   SFRSYM    DATA     BYTE      TMR5CN0
      000000FFH   SFRSYM    DATA     BYTE      TMR4CN1
      000000D7H   SFRSYM    DATA     BYTE      SMB0ADR
      00000088H.4 SFRSYM    DATA     BIT       TCON_TR0
      000000F1H   SFRSYM    DATA     BYTE      TMR5CN1
      000000C8H.4 SFRSYM    DATA     BIT       TMR2CN0_TF2CEN
      00000088H.6 SFRSYM    DATA     BIT       TCON_TR1
      000000C2H   SFRSYM    DATA     BYTE      SMB0DAT
      000000A0H.6 SFRSYM    DATA     BIT       BSP_DISP_CS
      000000CFH   SFRSYM    DATA     BYTE      TMR2H
      000000A1H   SFRSYM    DATA     BYTE      SPI0CFG
      00000095H   SFRSYM    DATA     BYTE      TMR3H
      000000EFH   SFRSYM    DATA     BYTE      HFOCN
      000000D3H   SFRSYM    DATA     BYTE      CRC0CNT
      000000A5H   SFRSYM    DATA     BYTE      TMR4H
      00000098H.4 SFRSYM    DATA     BIT       TMR4CN0_TF4CEN
LX51 LINKER/LOCATER V4.66.30.0                                                        04/24/2017  21:26:22  PAGE 48


      000000D5H   SFRSYM    DATA     BYTE      TMR5H
      000000EFH   SFRSYM    DATA     BYTE      SMB0FCT
      00000096H   SFRSYM    DATA     BYTE      PCA0POL
      000000CEH   SFRSYM    DATA     BYTE      TMR2L
      000000C0H.4 SFRSYM    DATA     BIT       TMR5CN0_TF5CEN
      000000F8H.7 SFRSYM    DATA     BIT       SPI0CN0_SPIF
      00000094H   SFRSYM    DATA     BYTE      TMR3L
      000000A8H.7 SFRSYM    DATA     BIT       IE_EA
      000000A4H   SFRSYM    DATA     BYTE      TMR4L
      000000D4H   SFRSYM    DATA     BYTE      TMR5L
      000000C8H.5 SFRSYM    DATA     BIT       TMR2CN0_TF2LEN
      000000F8H.6 SFRSYM    DATA     BIT       SPI0CN0_WCOL
      000000F8H.2 SFRSYM    DATA     BIT       SPI0CN0_NSSMD0
      000000D0H.7 SFRSYM    DATA     BIT       PSW_CY
      0000009DH   SFRSYM    DATA     BYTE      UART1FCN0
      000000DFH   SFRSYM    DATA     BYTE      SPI0PCF
      000000A3H   SFRSYM    DATA     BYTE      SPI0DAT
      000000ADH   SFRSYM    DATA     BYTE      I2C0FCN0
      000000F8H.3 SFRSYM    DATA     BIT       SPI0CN0_NSSMD1
      000000BDH   SFRSYM    DATA     WORD      ADC0
      000000D8H   SFRSYM    DATA     BYTE      UART1FCN1
      000000ABH   SFRSYM    DATA     BYTE      I2C0FCN1
      000000E8H   SFRSYM    DATA     BIT       CLIF0_C0FIF
      00000098H.5 SFRSYM    DATA     BIT       TMR4CN0_TF4LEN
      000000E8H.2 SFRSYM    DATA     BIT       CLIF0_C1FIF
      000000D0H   SFRSYM    DATA     BYTE      PSW
      000000F7H   SFRSYM    DATA     BYTE      PCA0PWM
      000000E8H.4 SFRSYM    DATA     BIT       CLIF0_C2FIF
      000000F7H   SFRSYM    DATA     BYTE      SPI0FCT
      000000B6H   SFRSYM    DATA     BYTE      REVID
      000000C0H.5 SFRSYM    DATA     BIT       TMR5CN0_TF5LEN
      000000E8H.6 SFRSYM    DATA     BIT       CLIF0_C3FIF
      000000B7H   SFRSYM    DATA     BYTE      FLKEY
      02000000H   SYMBOL    PDATA    ---       TxBuffer
      0000005BH   SYMBOL    DATA     BYTE      TransferState
      0000005CH   SYMBOL    DATA     BYTE      TransferSize

      0100117BH   BLOCK     CODE     ---       LVL=0
      0000004AH   SYMBOL    DATA     ---       buffer
      00000005H   SYMBOL    DATA     BYTE      size
      01001181H   BLOCK     CODE     NEAR LAB  LVL=1
      00000007H   SYMBOL    DATA     BYTE      sfrPageSave
      00000007H   SYMBOL    DATA     BYTE      i
      ---         BLOCKEND  ---      ---       LVL=1
      0100117BH   LINE      CODE     ---       #38
      01001181H   LINE      CODE     ---       #39
      01001181H   LINE      CODE     ---       #44
      01001185H   LINE      CODE     ---       #47
      01001188H   LINE      CODE     ---       #48
      0100118AH   LINE      CODE     ---       #50
      01001191H   LINE      CODE     ---       #51
      01001191H   LINE      CODE     ---       #52
      010011A6H   LINE      CODE     ---       #53
      010011A9H   LINE      CODE     ---       #55
      010011ABH   LINE      CODE     ---       #56
      010011AEH   LINE      CODE     ---       #60
      010011B4H   LINE      CODE     ---       #61
      010011B6H   LINE      CODE     ---       #62
      010011B9H   LINE      CODE     ---       #64
      010011BBH   LINE      CODE     ---       #65
      ---         BLOCKEND  ---      ---       LVL=0

LX51 LINKER/LOCATER V4.66.30.0                                                        04/24/2017  21:26:22  PAGE 49


      01001348H   BLOCK     CODE     ---       LVL=0
      01001348H   BLOCK     CODE     NEAR LAB  LVL=1
      00000007H   SYMBOL    DATA     BYTE      sfrPageSave
      ---         BLOCKEND  ---      ---       LVL=1
      01001348H   LINE      CODE     ---       #71
      01001348H   LINE      CODE     ---       #72
      01001348H   LINE      CODE     ---       #76
      0100134BH   LINE      CODE     ---       #78
      0100134DH   LINE      CODE     ---       #79
      01001350H   LINE      CODE     ---       #83
      01001356H   LINE      CODE     ---       #84
      01001359H   LINE      CODE     ---       #86
      0100135BH   LINE      CODE     ---       #87
      ---         BLOCKEND  ---      ---       LVL=0

      01000FF6H   BLOCK     CODE     ---       LVL=0
      01000FF6H   LINE      CODE     ---       #98
      01001013H   LINE      CODE     ---       #100
      01001016H   LINE      CODE     ---       #103
      01001019H   LINE      CODE     ---       #106
      0100101EH   LINE      CODE     ---       #107
      0100101EH   LINE      CODE     ---       #108
      01001021H   LINE      CODE     ---       #109
      0100102EH   LINE      CODE     ---       #110
      01001030H   LINE      CODE     ---       #112
      01001035H   LINE      CODE     ---       #113
      01001035H   LINE      CODE     ---       #115
      01001037H   LINE      CODE     ---       #118
      0100103AH   LINE      CODE     ---       #119
      0100103AH   LINE      CODE     ---       #120
      ---         BLOCKEND  ---      ---       LVL=0

      ---         MODULE    ---      ---       TICK
      0100137EH   PUBLIC    CODE     ---       TIMER3_ISR
      010012E6H   PUBLIC    CODE     ---       _Wait
      0100131EH   PUBLIC    CODE     ---       GetTickCount
      000000A2H   SFRSYM    DATA     BYTE      SPI0CKR
      00000080H   SFRSYM    DATA     BYTE      P0
      000000C8H.6 SFRSYM    DATA     BIT       SCON1_PERR
      000000D0H.2 SFRSYM    DATA     BIT       PSW_OV
      00000086H   SFRSYM    DATA     BYTE      XOSC0CN
      00000090H   SFRSYM    DATA     BYTE      P1
      000000F8H.1 SFRSYM    DATA     BIT       SPI0CN0_TXNF
      00000097H   SFRSYM    DATA     BYTE      WDTCN
      000000A0H   SFRSYM    DATA     BYTE      P2
      000000B0H   SFRSYM    DATA     BYTE      P3
      000000C0H.7 SFRSYM    DATA     BIT       SMB0CN0_MASTER
      000000F9H   SFRSYM    DATA     WORD      PCA0
      000000E6H   SFRSYM    DATA     BYTE      EIE1
      000000C0H.1 SFRSYM    DATA     BIT       SMB0CN0_ACK
      000000E8H.1 SFRSYM    DATA     BIT       CLIF0_C0RIF
      000000F3H   SFRSYM    DATA     BYTE      EIE2
      000000E8H.3 SFRSYM    DATA     BIT       CLIF0_C1RIF
      000000E8H.5 SFRSYM    DATA     BIT       CLIF0_C2RIF
      0000008FH   SFRSYM    DATA     BYTE      PSCTL
      00000080H.2 SFRSYM    DATA     BIT       BSP_PB0
      000000E8H.7 SFRSYM    DATA     BIT       CLIF0_C3RIF
      000000E4H   SFRSYM    DATA     BYTE      IT01CF
      00000080H.3 SFRSYM    DATA     BIT       BSP_PB1
      000000C0H.6 SFRSYM    DATA     BIT       SMB0CN0_TXMODE
      000000ADH   SFRSYM    DATA     BYTE      DERIVID
      000000A7H   SFRSYM    DATA     BYTE      SFRPAGE
LX51 LINKER/LOCATER V4.66.30.0                                                        04/24/2017  21:26:22  PAGE 50


      000000A4H   SFRSYM    DATA     BYTE      P0MDOUT
      000000A5H   SFRSYM    DATA     BYTE      P1MDOUT
      000000E8H.5 SFRSYM    DATA     BIT       ADC0CN0_ADINT
      000000CBH   SFRSYM    DATA     BYTE      TMR2RLH
      000000A6H   SFRSYM    DATA     BYTE      P2MDOUT
      000000A8H   SFRSYM    DATA     BYTE      IE
      00000093H   SFRSYM    DATA     BYTE      TMR3RLH
      0000009CH   SFRSYM    DATA     BYTE      P3MDOUT
      000000A3H   SFRSYM    DATA     BYTE      TMR4RLH
      000000BBH   SFRSYM    DATA     BYTE      EIP1
      000000D3H   SFRSYM    DATA     BYTE      TMR5RLH
      000000EDH   SFRSYM    DATA     BYTE      EIP2
      00000098H.2 SFRSYM    DATA     BIT       SCON0_RB8
      000000CAH   SFRSYM    DATA     BYTE      TMR2RLL
      000000FCH   SFRSYM    DATA     BYTE      PCA0CPH0
      00000092H   SFRSYM    DATA     BYTE      TMR3RLL
      000000EAH   SFRSYM    DATA     BYTE      PCA0CPH1
      00000098H.3 SFRSYM    DATA     BIT       SCON0_TB8
      000000F0H   SFRSYM    DATA     BIT       B_B0
      00000082H   SFRSYM    DATA     WORD      DP
      000000A2H   SFRSYM    DATA     BYTE      TMR4RLL
      000000ECH   SFRSYM    DATA     BYTE      PCA0CPH2
      000000F0H.1 SFRSYM    DATA     BIT       B_B1
      000000C3H   SFRSYM    DATA     WORD      ADC0GT
      000000D2H   SFRSYM    DATA     BYTE      TMR5RLL
      000000F5H   SFRSYM    DATA     BYTE      PCA0CPH3
      000000BDH   SFRSYM    DATA     BYTE      I2C0SLAD
      000000D8H.3 SFRSYM    DATA     BIT       UART1FCN1_RFRQ
      000000F0H.2 SFRSYM    DATA     BIT       B_B2
      000000BCH   SFRSYM    DATA     BYTE      SFRPGCN
      000000FBH   SFRSYM    DATA     BYTE      PCA0CPL0
      00000085H   SFRSYM    DATA     BYTE      PCA0CPH4
      000000F0H.3 SFRSYM    DATA     BIT       B_B3
      000000D9H   SFRSYM    DATA     BYTE      PCA0MD
      000000DAH   SFRSYM    DATA     BYTE      PCA0CPM0
      000000E9H   SFRSYM    DATA     BYTE      PCA0CPL1
      000000DEH   SFRSYM    DATA     BYTE      PCA0CPH5
      000000D8H.7 SFRSYM    DATA     BIT       UART1FCN1_TFRQ
      000000F0H.4 SFRSYM    DATA     BIT       B_B4
      000000DBH   SFRSYM    DATA     BYTE      PCA0CPM1
      000000EBH   SFRSYM    DATA     BYTE      PCA0CPL2
      000000A1H   SFRSYM    DATA     BYTE      ADC0ASCF
      000000B6H   SFRSYM    DATA     BYTE      ADC0ASAH
      000000F0H.5 SFRSYM    DATA     BIT       B_B5
      000000E8H.6 SFRSYM    DATA     BIT       ADC0CN0_IPOEN
      000000E8H   SFRSYM    DATA     BIT       ADC0CN0_TEMPE
      000000DCH   SFRSYM    DATA     BYTE      PCA0CPM2
      000000F4H   SFRSYM    DATA     BYTE      PCA0CPL3
      000000B8H   SFRSYM    DATA     BYTE      IP
      000000F0H.6 SFRSYM    DATA     BIT       B_B6
      000000C5H   SFRSYM    DATA     WORD      ADC0LT
      000000AEH   SFRSYM    DATA     BYTE      PCA0CPM3
      00000084H   SFRSYM    DATA     BYTE      PCA0CPL4
      000000D8H.6 SFRSYM    DATA     BIT       UART1FCN1_TXNF
      00000098H.5 SFRSYM    DATA     BIT       SCON0_MCE
      000000F0H.7 SFRSYM    DATA     BIT       B_B7
      000000AFH   SFRSYM    DATA     BYTE      PCA0CPM4
      000000DDH   SFRSYM    DATA     BYTE      PCA0CPL5
      000000C3H   SFRSYM    DATA     BYTE      SMB0FCN0
      000000CCH   SFRSYM    DATA     BYTE      PCA0CPM5
      000000B5H   SFRSYM    DATA     BYTE      ADC0ASAL
      000000E1H   SFRSYM    DATA     BYTE      XBR0
LX51 LINKER/LOCATER V4.66.30.0                                                        04/24/2017  21:26:22  PAGE 51


      000000C4H   SFRSYM    DATA     BYTE      SMB0FCN1
      000000C1H   SFRSYM    DATA     BYTE      SMB0CF
      000000E2H   SFRSYM    DATA     BYTE      XBR1
      000000C1H   SFRSYM    DATA     BYTE      PFE0CN
      000000E7H   SFRSYM    DATA     BYTE      EMI0CN
      000000C0H.5 SFRSYM    DATA     BIT       SMB0CN0_STA
      000000E3H   SFRSYM    DATA     BYTE      XBR2
      000000B1H   SFRSYM    DATA     BYTE      CLU0CF
      000000BBH   SFRSYM    DATA     BYTE      ADC0MX
      000000E0H   SFRSYM    DATA     BIT       ACC_ACC0
      000000D1H   SFRSYM    DATA     BYTE      REF0CN
      000000B3H   SFRSYM    DATA     BYTE      CLU1CF
      0000008EH   SFRSYM    DATA     BYTE      CKCON0
      000000E0H.1 SFRSYM    DATA     BIT       ACC_ACC1
      000000C9H   SFRSYM    DATA     BYTE      REG0CN
      000000CAH   SFRSYM    DATA     BYTE      CRC0IN
      000000B6H   SFRSYM    DATA     BYTE      CLU2CF
      000000A6H   SFRSYM    DATA     BYTE      CKCON1
      000000C8H.2 SFRSYM    DATA     BIT       TMR2CN0_TR2
      000000E0H.2 SFRSYM    DATA     BIT       ACC_ACC2
      000000BFH   SFRSYM    DATA     BYTE      CLU3CF
      000000E0H.3 SFRSYM    DATA     BIT       ACC_ACC3
      00000081H   SFRSYM    DATA     BYTE      SP
      0000009DH   SFRSYM    DATA     BYTE      CMP0MD
      000000E0H.4 SFRSYM    DATA     BIT       ACC_ACC4
      000000B1H   SFRSYM    DATA     BYTE      LFO0CN
      000000ABH   SFRSYM    DATA     BYTE      CMP1MD
      000000D8H   SFRSYM    DATA     BIT       PCA0CN0_CCF0
      000000E0H.5 SFRSYM    DATA     BIT       ACC_ACC5
      00000098H.2 SFRSYM    DATA     BIT       TMR4CN0_TR4
      000000D8H.1 SFRSYM    DATA     BIT       PCA0CN0_CCF1
      000000E0H.6 SFRSYM    DATA     BIT       ACC_ACC6
      000000CEH   SFRSYM    DATA     WORD      TMR2
      0000009AH   SFRSYM    DATA     BYTE      SPI0FCN0
      000000C7H   SFRSYM    DATA     BYTE      ADC0ASCT
      000000D8H.2 SFRSYM    DATA     BIT       PCA0CN0_CCF2
      000000E0H.7 SFRSYM    DATA     BIT       ACC_ACC7
      00000094H   SFRSYM    DATA     WORD      TMR3
      0000009BH   SFRSYM    DATA     BYTE      SPI0FCN1
      000000C0H.2 SFRSYM    DATA     BIT       TMR5CN0_TR5
      000000D8H.3 SFRSYM    DATA     BIT       PCA0CN0_CCF3
      000000A4H   SFRSYM    DATA     WORD      TMR4
      00000094H   SFRSYM    DATA     BYTE      SBCON1
      000000D8H.4 SFRSYM    DATA     BIT       PCA0CN0_CCF4
      000000D4H   SFRSYM    DATA     WORD      TMR5
      000000C0H.3 SFRSYM    DATA     BIT       SMB0CN0_ACKRQ
      000000D8H.5 SFRSYM    DATA     BIT       PCA0CN0_CCF5
      000000FFH   SFRSYM    DATA     BYTE      VDM0CN
      000000F1H   SFRSYM    DATA     BYTE      P0MDIN
      000000AFH   SFRSYM    DATA     BYTE      CLU0FN
      00000098H.4 SFRSYM    DATA     BIT       SCON0_REN
      000000ACH   SFRSYM    DATA     BYTE      SMB0TC
      000000F2H   SFRSYM    DATA     BYTE      P1MDIN
      000000B2H   SFRSYM    DATA     BYTE      CLU1FN
      000000C8H.4 SFRSYM    DATA     BIT       SCON1_REN
      000000F3H   SFRSYM    DATA     BYTE      P2MDIN
      000000B5H   SFRSYM    DATA     BYTE      CLU2FN
      000000C0H.4 SFRSYM    DATA     BIT       SMB0CN0_STO
      000000F4H   SFRSYM    DATA     BYTE      P3MDIN
      000000B9H   SFRSYM    DATA     BYTE      I2C0STAT
      000000BBH   SFRSYM    DATA     BYTE      I2C0DOUT
      000000BEH   SFRSYM    DATA     BYTE      CLU3FN
LX51 LINKER/LOCATER V4.66.30.0                                                        04/24/2017  21:26:22  PAGE 52


      00000096H   SFRSYM    DATA     BYTE      SBRLH1
      000000FEH   SFRSYM    DATA     BYTE      P0MASK
      000000D8H.5 SFRSYM    DATA     BIT       UART1FCN1_TXHOLD
      000000EEH   SFRSYM    DATA     BYTE      P1MASK
      000000FCH   SFRSYM    DATA     BYTE      P2MASK
      000000D0H.3 SFRSYM    DATA     BIT       PSW_RS0
      000000D8H.7 SFRSYM    DATA     BIT       PCA0CN0_CF
      0000009EH   SFRSYM    DATA     BYTE      PCA0CENT
      000000BAH   SFRSYM    DATA     BYTE      I2C0CN0
      000000D2H   SFRSYM    DATA     BYTE      CRC0ST
      000000F8H.4 SFRSYM    DATA     BIT       SPI0CN0_RXOVRN
      000000D0H.4 SFRSYM    DATA     BIT       PSW_RS1
      00000095H   SFRSYM    DATA     BYTE      SBRLL1
      000000C8H.2 SFRSYM    DATA     BIT       SCON1_RBX
      00000091H   SFRSYM    DATA     BYTE      DAC0CF0
      000000BCH   SFRSYM    DATA     BYTE      ADC0CF0
      000000C8H   SFRSYM    DATA     BIT       TMR2CN0_T2XCLK0
      00000093H   SFRSYM    DATA     BYTE      DAC1CF0
      00000092H   SFRSYM    DATA     BYTE      DAC0CF1
      000000B9H   SFRSYM    DATA     BYTE      ADC0CF1
      000000C8H.1 SFRSYM    DATA     BIT       TMR2CN0_T2XCLK1
      000000C8H.3 SFRSYM    DATA     BIT       SCON1_TBX
      000000E8H.7 SFRSYM    DATA     BIT       ADC0CN0_ADEN
      00000089H   SFRSYM    DATA     BYTE      TMOD
      00000088H   SFRSYM    DATA     BYTE      TCON
      00000095H   SFRSYM    DATA     BYTE      DAC2CF0
      00000094H   SFRSYM    DATA     BYTE      DAC1CF1
      000000DFH   SFRSYM    DATA     BYTE      ADC0CF2
      0000009AH   SFRSYM    DATA     BYTE      DAC3CF0
      00000096H   SFRSYM    DATA     BYTE      DAC2CF1
      000000CFH   SFRSYM    DATA     BYTE      CRC0FLIP
      000000D0H   SFRSYM    DATA     BIT       PSW_PARITY
      000000A8H.4 SFRSYM    DATA     BIT       IE_ES0
      0000009CH   SFRSYM    DATA     BYTE      DAC3CF1
      0000009FH   SFRSYM    DATA     BYTE      CMP0MX
      00000098H   SFRSYM    DATA     BIT       TMR4CN0_T4XCLK0
      000000A8H.1 SFRSYM    DATA     BIT       IE_ET0
      000000AAH   SFRSYM    DATA     BYTE      CMP1MX
      00000098H.1 SFRSYM    DATA     BIT       TMR4CN0_T4XCLK1
      000000A8H.3 SFRSYM    DATA     BIT       IE_ET1
      000000D4H   SFRSYM    DATA     BYTE      P0SKIP
      000000D1H   SFRSYM    DATA     BYTE      CLOUT0
      00000090H.7 SFRSYM    DATA     BIT       BSP_JOYSTICK
      000000D8H   SFRSYM    DATA     BIT       UART1FCN1_RIE
      000000C0H   SFRSYM    DATA     BIT       TMR5CN0_T5XCLK0
      000000A8H.5 SFRSYM    DATA     BIT       IE_ET2
      00000088H   SFRSYM    DATA     BIT       DACGCF0_D1SRC0
      000000D5H   SFRSYM    DATA     BYTE      P1SKIP
      000000C0H.1 SFRSYM    DATA     BIT       TMR5CN0_T5XCLK1
      00000088H.1 SFRSYM    DATA     BIT       DACGCF0_D1SRC1
      000000CCH   SFRSYM    DATA     BYTE      P2SKIP
      00000084H   SFRSYM    DATA     BYTE      CLU0MX
      000000E8H   SFRSYM    DATA     BYTE      ADC0CN0
      000000D8H.4 SFRSYM    DATA     BIT       UART1FCN1_TIE
      000000A8H   SFRSYM    DATA     BIT       IE_EX0
      00000088H.4 SFRSYM    DATA     BIT       DACGCF0_D3SRC0
      00000085H   SFRSYM    DATA     BYTE      CLU1MX
      000000B2H   SFRSYM    DATA     BYTE      ADC0CN1
      000000D8H.6 SFRSYM    DATA     BIT       PCA0CN0_CR
      000000A8H.2 SFRSYM    DATA     BIT       IE_EX1
      00000088H.5 SFRSYM    DATA     BIT       DACGCF0_D3SRC1
      00000091H   SFRSYM    DATA     BYTE      CLU2MX
LX51 LINKER/LOCATER V4.66.30.0                                                        04/24/2017  21:26:22  PAGE 53


      000000B3H   SFRSYM    DATA     BYTE      ADC0CN2
      00000090H.5 SFRSYM    DATA     BIT       BSP_LED_B
      000000C8H.7 SFRSYM    DATA     BIT       SCON1_OVR
      000000AAH   SFRSYM    DATA     BYTE      PSTAT0
      000000AEH   SFRSYM    DATA     BYTE      CLU3MX
      000000A0H.2 SFRSYM    DATA     BIT       BSP_BC_EN
      00000098H.7 SFRSYM    DATA     BIT       SCON0_SMODE
      000000B5H   SFRSYM    DATA     BYTE      DEVICEID
      000000A9H   SFRSYM    DATA     BYTE      CLKSEL
      000000F8H   SFRSYM    DATA     BIT       SPI0CN0_SPIEN
      00000085H   SFRSYM    DATA     BYTE      DAC0H
      000000F0H   SFRSYM    DATA     BYTE      B
      000000BEH   SFRSYM    DATA     BYTE      ADC0H
      000000FFH   SFRSYM    DATA     BYTE      I2C0ADM
      0000008AH   SFRSYM    DATA     BYTE      DAC1H
      00000090H.4 SFRSYM    DATA     BIT       BSP_LED_G
      00000088H.2 SFRSYM    DATA     BIT       DACGCF0_D1AMEN
      0000008CH   SFRSYM    DATA     BYTE      DAC2H
      0000008EH   SFRSYM    DATA     BYTE      DAC3H
      00000088H.6 SFRSYM    DATA     BIT       DACGCF0_D3AMEN
      000000CAH   SFRSYM    DATA     WORD      TMR2RL
      00000084H   SFRSYM    DATA     BYTE      DAC0L
      000000BDH   SFRSYM    DATA     BYTE      ADC0L
      00000092H   SFRSYM    DATA     WORD      TMR3RL
      00000089H   SFRSYM    DATA     BYTE      DAC1L
      000000A2H   SFRSYM    DATA     WORD      TMR4RL
      000000D8H   SFRSYM    DATA     BYTE      PCA0CN0
      0000008BH   SFRSYM    DATA     BYTE      DAC2L
      000000E0H   SFRSYM    DATA     BYTE      ACC
      000000D2H   SFRSYM    DATA     WORD      TMR5RL
      000000D9H   SFRSYM    DATA     BYTE      UART0PCF
      0000008DH   SFRSYM    DATA     BYTE      DAC3L
      000000FBH   SFRSYM    DATA     WORD      PCA0CP0
      000000DAH   SFRSYM    DATA     BYTE      UART1PCF
      000000E9H   SFRSYM    DATA     WORD      PCA0CP1
      00000088H   SFRSYM    DATA     BYTE      DACGCF0
      000000EBH   SFRSYM    DATA     WORD      PCA0CP2
      000000BCH   SFRSYM    DATA     BYTE      I2C0DIN
      00000098H   SFRSYM    DATA     BYTE      DACGCF1
      000000CEH   SFRSYM    DATA     BYTE      CRC0CN0
      000000F4H   SFRSYM    DATA     WORD      PCA0CP3
      0000008CH   SFRSYM    DATA     BYTE      TH0
      000000A2H   SFRSYM    DATA     BYTE      DACGCF2
      00000086H   SFRSYM    DATA     BYTE      CRC0CN1
      000000B8H.4 SFRSYM    DATA     BIT       IP_PS0
      00000084H   SFRSYM    DATA     WORD      PCA0CP4
      000000FAH   SFRSYM    DATA     BYTE      UART1FCT
      0000008DH   SFRSYM    DATA     BYTE      TH1
      000000FAH   SFRSYM    DATA     BYTE      PCA0H
      000000F5H   SFRSYM    DATA     BYTE      I2C0FCT
      00000090H.6 SFRSYM    DATA     BIT       BSP_LED_R
      000000B8H.1 SFRSYM    DATA     BIT       IP_PT0
      000000DDH   SFRSYM    DATA     WORD      PCA0CP5
      000000C7H   SFRSYM    DATA     BYTE      CLIE0
      000000B8H.3 SFRSYM    DATA     BIT       IP_PT1
      00000088H.3 SFRSYM    DATA     BIT       DACGCF0_D01REFSL
      000000B5H   SFRSYM    DATA     WORD      ADC0ASA
      000000E8H   SFRSYM    DATA     BYTE      CLIF0
      000000C0H.2 SFRSYM    DATA     BIT       SMB0CN0_ARBLOST
      000000B8H.5 SFRSYM    DATA     BIT       IP_PT2
      0000008AH   SFRSYM    DATA     BYTE      TL0
      000000D0H.5 SFRSYM    DATA     BIT       PSW_F0
LX51 LINKER/LOCATER V4.66.30.0                                                        04/24/2017  21:26:22  PAGE 54


      000000A8H.6 SFRSYM    DATA     BIT       IE_ESPI0
      0000008BH   SFRSYM    DATA     BYTE      TL1
      000000F9H   SFRSYM    DATA     BYTE      PCA0L
      000000C0H   SFRSYM    DATA     BIT       SMB0CN0_SI
      000000D0H.1 SFRSYM    DATA     BIT       PSW_F1
      00000080H   SFRSYM    DATA     BIT       P0_B0
      000000B8H   SFRSYM    DATA     BIT       IP_PX0
      00000090H   SFRSYM    DATA     BIT       P1_B0
      00000080H.1 SFRSYM    DATA     BIT       P0_B1
      000000B8H.2 SFRSYM    DATA     BIT       IP_PX1
      00000088H.7 SFRSYM    DATA     BIT       DACGCF0_D23REFSL
      0000009EH   SFRSYM    DATA     BYTE      UART1LIN
      0000009BH   SFRSYM    DATA     BYTE      CMP0CN0
      000000C6H   SFRSYM    DATA     BYTE      CLEN0
      00000088H.1 SFRSYM    DATA     BIT       TCON_IE0
      000000A0H   SFRSYM    DATA     BIT       P2_B0
      00000090H.1 SFRSYM    DATA     BIT       P1_B1
      00000080H.2 SFRSYM    DATA     BIT       P0_B2
      000000BFH   SFRSYM    DATA     BYTE      CMP1CN0
      00000099H   SFRSYM    DATA     BYTE      CMP0CN1
      00000088H.3 SFRSYM    DATA     BIT       TCON_IE1
      000000B0H   SFRSYM    DATA     BIT       P3_B0
      000000A0H.1 SFRSYM    DATA     BIT       P2_B1
      00000090H.2 SFRSYM    DATA     BIT       P1_B2
      00000080H.3 SFRSYM    DATA     BIT       P0_B3
      000000C0H   SFRSYM    DATA     BYTE      SMB0CN0
      000000ACH   SFRSYM    DATA     BYTE      CMP1CN1
      000000B0H.1 SFRSYM    DATA     BIT       P3_B1
      000000A0H.2 SFRSYM    DATA     BIT       P2_B2
      00000090H.3 SFRSYM    DATA     BIT       P1_B3
      00000080H.4 SFRSYM    DATA     BIT       P0_B4
      000000B0H.2 SFRSYM    DATA     BIT       P3_B2
      000000A0H.3 SFRSYM    DATA     BIT       P2_B3
      00000090H.4 SFRSYM    DATA     BIT       P1_B4
      00000080H.5 SFRSYM    DATA     BIT       P0_B5
      00000098H   SFRSYM    DATA     BIT       DACGCF1_D0UDIS
      000000D8H.1 SFRSYM    DATA     BIT       UART1FCN1_RXTO0
      000000B0H.3 SFRSYM    DATA     BIT       P3_B3
      000000A0H.4 SFRSYM    DATA     BIT       P2_B4
      00000090H.5 SFRSYM    DATA     BIT       P1_B5
      00000080H.6 SFRSYM    DATA     BIT       P0_B6
      00000098H.1 SFRSYM    DATA     BIT       DACGCF1_D1UDIS
      000000EEH   SFRSYM    DATA     BYTE      EIP1H
      000000D8H.2 SFRSYM    DATA     BIT       UART1FCN1_RXTO1
      000000B0H.4 SFRSYM    DATA     BIT       P3_B4
      000000A0H.5 SFRSYM    DATA     BIT       P2_B5
      00000090H.6 SFRSYM    DATA     BIT       P1_B6
      00000080H.7 SFRSYM    DATA     BIT       P0_B7
      00000098H.2 SFRSYM    DATA     BIT       DACGCF1_D2UDIS
      000000C5H   SFRSYM    DATA     BYTE      SMB0RXLN
      000000F6H   SFRSYM    DATA     BYTE      EIP2H
      000000A0H.6 SFRSYM    DATA     BIT       P2_B6
      00000090H.7 SFRSYM    DATA     BIT       P1_B7
      00000098H.3 SFRSYM    DATA     BIT       DACGCF1_D3UDIS
      000000B0H.7 SFRSYM    DATA     BIT       P3_B7
      00000083H   SFRSYM    DATA     BYTE      DPH
      000000C4H   SFRSYM    DATA     BYTE      ADC0GTH
      000000C8H.7 SFRSYM    DATA     BIT       TMR2CN0_TF2H
      000000C8H.3 SFRSYM    DATA     BIT       TMR2CN0_T2SPLIT
      000000D0H.6 SFRSYM    DATA     BIT       PSW_AC
      000000F8H   SFRSYM    DATA     BYTE      SPI0CN0
      000000C7H   SFRSYM    DATA     BYTE      HFO0CAL
LX51 LINKER/LOCATER V4.66.30.0                                                        04/24/2017  21:26:22  PAGE 55


      00000088H.5 SFRSYM    DATA     BIT       TCON_TF0
      00000098H   SFRSYM    DATA     BIT       SCON0_RI
      000000D6H   SFRSYM    DATA     BYTE      HFO1CAL
      00000082H   SFRSYM    DATA     BYTE      DPL
      00000088H.7 SFRSYM    DATA     BIT       TCON_TF1
      000000C8H   SFRSYM    DATA     BIT       SCON1_RI
      00000099H   SFRSYM    DATA     BYTE      SBUF0
      00000087H   SFRSYM    DATA     BYTE      PCON0
      000000F2H   SFRSYM    DATA     BYTE      IPH
      000000C3H   SFRSYM    DATA     BYTE      ADC0GTL
      00000098H.7 SFRSYM    DATA     BIT       TMR4CN0_TF4H
      00000098H.3 SFRSYM    DATA     BIT       TMR4CN0_T4SPLIT
      000000C8H.6 SFRSYM    DATA     BIT       TMR2CN0_TF2L
      00000098H.1 SFRSYM    DATA     BIT       SCON0_TI
      00000092H   SFRSYM    DATA     BYTE      SBUF1
      000000CDH   SFRSYM    DATA     BYTE      PCON1
      000000C6H   SFRSYM    DATA     BYTE      ADC0LTH
      00000088H   SFRSYM    DATA     BIT       TCON_IT0
      000000C8H.1 SFRSYM    DATA     BIT       SCON1_TI
      000000EFH   SFRSYM    DATA     BYTE      RSTSRC
      000000FDH   SFRSYM    DATA     BYTE      P0MAT
      000000CBH   SFRSYM    DATA     BYTE      CRC0DAT
      000000C0H.7 SFRSYM    DATA     BIT       TMR5CN0_TF5H
      000000C0H.3 SFRSYM    DATA     BIT       TMR5CN0_T5SPLIT
      00000088H.2 SFRSYM    DATA     BIT       TCON_IT1
      000000D7H   SFRSYM    DATA     BYTE      SFRSTACK
      00000098H   SFRSYM    DATA     BYTE      SCON0
      000000F6H   SFRSYM    DATA     BYTE      PRTDRV
      000000EDH   SFRSYM    DATA     BYTE      P1MAT
      000000E8H.3 SFRSYM    DATA     BIT       ADC0CN0_ADWINT
      00000093H   SFRSYM    DATA     BYTE      SMOD1
      000000C8H   SFRSYM    DATA     BYTE      SCON1
      000000FBH   SFRSYM    DATA     BYTE      P2MAT
      00000098H.6 SFRSYM    DATA     BIT       TMR4CN0_TF4L
      000000E8H.4 SFRSYM    DATA     BIT       ADC0CN0_ADBUSY
      000000D6H   SFRSYM    DATA     BYTE      SMB0ADM
      000000C5H   SFRSYM    DATA     BYTE      ADC0LTL
      000000F8H.5 SFRSYM    DATA     BIT       SPI0CN0_MODF
      000000B8H.6 SFRSYM    DATA     BIT       IP_PSPI0
      000000E8H.1 SFRSYM    DATA     BIT       ADC0CN0_ADGN0
      0000009CH   SFRSYM    DATA     BYTE      PCA0CLR
      000000C0H.6 SFRSYM    DATA     BIT       TMR5CN0_TF5L
      000000E8H.2 SFRSYM    DATA     BIT       ADC0CN0_ADGN1
      000000C8H   SFRSYM    DATA     BYTE      TMR2CN0
      00000091H   SFRSYM    DATA     BYTE      TMR3CN0
      000000FDH   SFRSYM    DATA     BYTE      TMR2CN1
      00000098H   SFRSYM    DATA     BYTE      TMR4CN0
      000000FEH   SFRSYM    DATA     BYTE      TMR3CN1
      000000B0H.4 SFRSYM    DATA     BIT       BSP_DISP_EN
      000000C0H   SFRSYM    DATA     BYTE      TMR5CN0
      000000FFH   SFRSYM    DATA     BYTE      TMR4CN1
      000000D7H   SFRSYM    DATA     BYTE      SMB0ADR
      00000088H.4 SFRSYM    DATA     BIT       TCON_TR0
      000000F1H   SFRSYM    DATA     BYTE      TMR5CN1
      000000C8H.4 SFRSYM    DATA     BIT       TMR2CN0_TF2CEN
      00000088H.6 SFRSYM    DATA     BIT       TCON_TR1
      000000C2H   SFRSYM    DATA     BYTE      SMB0DAT
      000000A0H.6 SFRSYM    DATA     BIT       BSP_DISP_CS
      000000CFH   SFRSYM    DATA     BYTE      TMR2H
      000000A1H   SFRSYM    DATA     BYTE      SPI0CFG
      00000095H   SFRSYM    DATA     BYTE      TMR3H
      000000EFH   SFRSYM    DATA     BYTE      HFOCN
LX51 LINKER/LOCATER V4.66.30.0                                                        04/24/2017  21:26:22  PAGE 56


      000000D3H   SFRSYM    DATA     BYTE      CRC0CNT
      000000A5H   SFRSYM    DATA     BYTE      TMR4H
      00000098H.4 SFRSYM    DATA     BIT       TMR4CN0_TF4CEN
      000000D5H   SFRSYM    DATA     BYTE      TMR5H
      000000EFH   SFRSYM    DATA     BYTE      SMB0FCT
      00000096H   SFRSYM    DATA     BYTE      PCA0POL
      000000CEH   SFRSYM    DATA     BYTE      TMR2L
      000000C0H.4 SFRSYM    DATA     BIT       TMR5CN0_TF5CEN
      000000F8H.7 SFRSYM    DATA     BIT       SPI0CN0_SPIF
      00000094H   SFRSYM    DATA     BYTE      TMR3L
      000000A8H.7 SFRSYM    DATA     BIT       IE_EA
      000000A4H   SFRSYM    DATA     BYTE      TMR4L
      000000D4H   SFRSYM    DATA     BYTE      TMR5L
      000000C8H.5 SFRSYM    DATA     BIT       TMR2CN0_TF2LEN
      000000F8H.6 SFRSYM    DATA     BIT       SPI0CN0_WCOL
      000000F8H.2 SFRSYM    DATA     BIT       SPI0CN0_NSSMD0
      000000D0H.7 SFRSYM    DATA     BIT       PSW_CY
      0000009DH   SFRSYM    DATA     BYTE      UART1FCN0
      000000DFH   SFRSYM    DATA     BYTE      SPI0PCF
      000000A3H   SFRSYM    DATA     BYTE      SPI0DAT
      000000ADH   SFRSYM    DATA     BYTE      I2C0FCN0
      000000F8H.3 SFRSYM    DATA     BIT       SPI0CN0_NSSMD1
      000000BDH   SFRSYM    DATA     WORD      ADC0
      000000D8H   SFRSYM    DATA     BYTE      UART1FCN1
      000000ABH   SFRSYM    DATA     BYTE      I2C0FCN1
      000000E8H   SFRSYM    DATA     BIT       CLIF0_C0FIF
      00000098H.5 SFRSYM    DATA     BIT       TMR4CN0_TF4LEN
      000000E8H.2 SFRSYM    DATA     BIT       CLIF0_C1FIF
      000000D0H   SFRSYM    DATA     BYTE      PSW
      000000F7H   SFRSYM    DATA     BYTE      PCA0PWM
      000000E8H.4 SFRSYM    DATA     BIT       CLIF0_C2FIF
      000000F7H   SFRSYM    DATA     BYTE      SPI0FCT
      000000B6H   SFRSYM    DATA     BYTE      REVID
      000000C0H.5 SFRSYM    DATA     BIT       TMR5CN0_TF5LEN
      000000E8H.6 SFRSYM    DATA     BIT       CLIF0_C3FIF
      000000B7H   SFRSYM    DATA     BYTE      FLKEY
      0000005DH   SYMBOL    DATA     WORD      Ticks

      0100131EH   BLOCK     CODE     ---       LVL=0
      0100131EH   BLOCK     CODE     NEAR LAB  LVL=1
      00000004H   SYMBOL    DATA     WORD      ticks
      00000007H   SYMBOL    DATA     BYTE      save_page
      ---         BLOCKEND  ---      ---       LVL=1
      0100131EH   LINE      CODE     ---       #35
      0100131EH   LINE      CODE     ---       #36
      0100131EH   LINE      CODE     ---       #38
      01001320H   LINE      CODE     ---       #41
      01001323H   LINE      CODE     ---       #42
      01001326H   LINE      CODE     ---       #44
      0100132AH   LINE      CODE     ---       #47
      0100132DH   LINE      CODE     ---       #48
      0100132FH   LINE      CODE     ---       #50
      01001333H   LINE      CODE     ---       #51
      ---         BLOCKEND  ---      ---       LVL=0

      010012E6H   BLOCK     CODE     ---       LVL=0
      00000002H   SYMBOL    DATA     WORD      ms
      010012EAH   BLOCK     CODE     NEAR LAB  LVL=1
      00000082H   SYMBOL    DATA     WORD      ticks
      ---         BLOCKEND  ---      ---       LVL=1
      010012E6H   LINE      CODE     ---       #61
      010012EAH   LINE      CODE     ---       #62
LX51 LINKER/LOCATER V4.66.30.0                                                        04/24/2017  21:26:22  PAGE 57


      010012EAH   LINE      CODE     ---       #63
      010012F1H   LINE      CODE     ---       #65
      01001304H   LINE      CODE     ---       #66
      ---         BLOCKEND  ---      ---       LVL=0

      0100137EH   BLOCK     CODE     ---       LVL=0
      0100137EH   LINE      CODE     ---       #79
      01001380H   LINE      CODE     ---       #82
      01001383H   LINE      CODE     ---       #84
      0100138BH   LINE      CODE     ---       #85
      ---         BLOCKEND  ---      ---       LVL=0

      ---         MODULE    ---      ---       SPI_0
      01000D70H   PUBLIC    CODE     ---       SPI0_ISR
      00000021H   PUBLIC    DATA     BYTE      ?_SPI0_transfer?BYTE
      01001055H   PUBLIC    CODE     ---       _SPI0_transfer
      000000A2H   SFRSYM    DATA     BYTE      SPI0CKR
      00000080H   SFRSYM    DATA     BYTE      P0
      000000C8H.6 SFRSYM    DATA     BIT       SCON1_PERR
      000000D0H.2 SFRSYM    DATA     BIT       PSW_OV
      00000086H   SFRSYM    DATA     BYTE      XOSC0CN
      00000090H   SFRSYM    DATA     BYTE      P1
      000000F8H.1 SFRSYM    DATA     BIT       SPI0CN0_TXNF
      00000097H   SFRSYM    DATA     BYTE      WDTCN
      000000A0H   SFRSYM    DATA     BYTE      P2
      000000B0H   SFRSYM    DATA     BYTE      P3
      000000C0H.7 SFRSYM    DATA     BIT       SMB0CN0_MASTER
      000000F9H   SFRSYM    DATA     WORD      PCA0
      000000E6H   SFRSYM    DATA     BYTE      EIE1
      000000C0H.1 SFRSYM    DATA     BIT       SMB0CN0_ACK
      000000E8H.1 SFRSYM    DATA     BIT       CLIF0_C0RIF
      000000F3H   SFRSYM    DATA     BYTE      EIE2
      000000E8H.3 SFRSYM    DATA     BIT       CLIF0_C1RIF
      000000E8H.5 SFRSYM    DATA     BIT       CLIF0_C2RIF
      0000008FH   SFRSYM    DATA     BYTE      PSCTL
      000000E8H.7 SFRSYM    DATA     BIT       CLIF0_C3RIF
      000000E4H   SFRSYM    DATA     BYTE      IT01CF
      000000C0H.6 SFRSYM    DATA     BIT       SMB0CN0_TXMODE
      000000ADH   SFRSYM    DATA     BYTE      DERIVID
      000000A7H   SFRSYM    DATA     BYTE      SFRPAGE
      000000A4H   SFRSYM    DATA     BYTE      P0MDOUT
      000000A5H   SFRSYM    DATA     BYTE      P1MDOUT
      000000E8H.5 SFRSYM    DATA     BIT       ADC0CN0_ADINT
      000000CBH   SFRSYM    DATA     BYTE      TMR2RLH
      000000A6H   SFRSYM    DATA     BYTE      P2MDOUT
      000000A8H   SFRSYM    DATA     BYTE      IE
      00000093H   SFRSYM    DATA     BYTE      TMR3RLH
      0000009CH   SFRSYM    DATA     BYTE      P3MDOUT
      000000A3H   SFRSYM    DATA     BYTE      TMR4RLH
      000000BBH   SFRSYM    DATA     BYTE      EIP1
      000000D3H   SFRSYM    DATA     BYTE      TMR5RLH
      000000EDH   SFRSYM    DATA     BYTE      EIP2
      00000098H.2 SFRSYM    DATA     BIT       SCON0_RB8
      000000CAH   SFRSYM    DATA     BYTE      TMR2RLL
      000000FCH   SFRSYM    DATA     BYTE      PCA0CPH0
      00000092H   SFRSYM    DATA     BYTE      TMR3RLL
      000000EAH   SFRSYM    DATA     BYTE      PCA0CPH1
      00000098H.3 SFRSYM    DATA     BIT       SCON0_TB8
      000000F0H   SFRSYM    DATA     BIT       B_B0
      00000082H   SFRSYM    DATA     WORD      DP
      000000A2H   SFRSYM    DATA     BYTE      TMR4RLL
      000000ECH   SFRSYM    DATA     BYTE      PCA0CPH2
LX51 LINKER/LOCATER V4.66.30.0                                                        04/24/2017  21:26:22  PAGE 58


      000000F0H.1 SFRSYM    DATA     BIT       B_B1
      000000C3H   SFRSYM    DATA     WORD      ADC0GT
      000000D2H   SFRSYM    DATA     BYTE      TMR5RLL
      000000F5H   SFRSYM    DATA     BYTE      PCA0CPH3
      000000BDH   SFRSYM    DATA     BYTE      I2C0SLAD
      000000D8H.3 SFRSYM    DATA     BIT       UART1FCN1_RFRQ
      000000F0H.2 SFRSYM    DATA     BIT       B_B2
      000000BCH   SFRSYM    DATA     BYTE      SFRPGCN
      000000FBH   SFRSYM    DATA     BYTE      PCA0CPL0
      00000085H   SFRSYM    DATA     BYTE      PCA0CPH4
      000000F0H.3 SFRSYM    DATA     BIT       B_B3
      000000D9H   SFRSYM    DATA     BYTE      PCA0MD
      000000DAH   SFRSYM    DATA     BYTE      PCA0CPM0
      000000E9H   SFRSYM    DATA     BYTE      PCA0CPL1
      000000DEH   SFRSYM    DATA     BYTE      PCA0CPH5
      000000D8H.7 SFRSYM    DATA     BIT       UART1FCN1_TFRQ
      000000F0H.4 SFRSYM    DATA     BIT       B_B4
      000000DBH   SFRSYM    DATA     BYTE      PCA0CPM1
      000000EBH   SFRSYM    DATA     BYTE      PCA0CPL2
      000000A1H   SFRSYM    DATA     BYTE      ADC0ASCF
      000000B6H   SFRSYM    DATA     BYTE      ADC0ASAH
      000000F0H.5 SFRSYM    DATA     BIT       B_B5
      000000E8H.6 SFRSYM    DATA     BIT       ADC0CN0_IPOEN
      000000E8H   SFRSYM    DATA     BIT       ADC0CN0_TEMPE
      000000DCH   SFRSYM    DATA     BYTE      PCA0CPM2
      000000F4H   SFRSYM    DATA     BYTE      PCA0CPL3
      000000B8H   SFRSYM    DATA     BYTE      IP
      000000F0H.6 SFRSYM    DATA     BIT       B_B6
      000000C5H   SFRSYM    DATA     WORD      ADC0LT
      000000AEH   SFRSYM    DATA     BYTE      PCA0CPM3
      00000084H   SFRSYM    DATA     BYTE      PCA0CPL4
      000000D8H.6 SFRSYM    DATA     BIT       UART1FCN1_TXNF
      00000098H.5 SFRSYM    DATA     BIT       SCON0_MCE
      000000F0H.7 SFRSYM    DATA     BIT       B_B7
      000000AFH   SFRSYM    DATA     BYTE      PCA0CPM4
      000000DDH   SFRSYM    DATA     BYTE      PCA0CPL5
      000000C3H   SFRSYM    DATA     BYTE      SMB0FCN0
      000000CCH   SFRSYM    DATA     BYTE      PCA0CPM5
      000000B5H   SFRSYM    DATA     BYTE      ADC0ASAL
      000000E1H   SFRSYM    DATA     BYTE      XBR0
      000000C4H   SFRSYM    DATA     BYTE      SMB0FCN1
      000000C1H   SFRSYM    DATA     BYTE      SMB0CF
      000000E2H   SFRSYM    DATA     BYTE      XBR1
      000000C1H   SFRSYM    DATA     BYTE      PFE0CN
      000000E7H   SFRSYM    DATA     BYTE      EMI0CN
      000000C0H.5 SFRSYM    DATA     BIT       SMB0CN0_STA
      000000E3H   SFRSYM    DATA     BYTE      XBR2
      000000B1H   SFRSYM    DATA     BYTE      CLU0CF
      000000BBH   SFRSYM    DATA     BYTE      ADC0MX
      000000E0H   SFRSYM    DATA     BIT       ACC_ACC0
      000000D1H   SFRSYM    DATA     BYTE      REF0CN
      000000B3H   SFRSYM    DATA     BYTE      CLU1CF
      0000008EH   SFRSYM    DATA     BYTE      CKCON0
      000000E0H.1 SFRSYM    DATA     BIT       ACC_ACC1
      000000C9H   SFRSYM    DATA     BYTE      REG0CN
      000000CAH   SFRSYM    DATA     BYTE      CRC0IN
      000000B6H   SFRSYM    DATA     BYTE      CLU2CF
      000000A6H   SFRSYM    DATA     BYTE      CKCON1
      000000C8H.2 SFRSYM    DATA     BIT       TMR2CN0_TR2
      000000E0H.2 SFRSYM    DATA     BIT       ACC_ACC2
      000000BFH   SFRSYM    DATA     BYTE      CLU3CF
      000000E0H.3 SFRSYM    DATA     BIT       ACC_ACC3
LX51 LINKER/LOCATER V4.66.30.0                                                        04/24/2017  21:26:22  PAGE 59


      00000081H   SFRSYM    DATA     BYTE      SP
      0000009DH   SFRSYM    DATA     BYTE      CMP0MD
      000000E0H.4 SFRSYM    DATA     BIT       ACC_ACC4
      000000B1H   SFRSYM    DATA     BYTE      LFO0CN
      000000ABH   SFRSYM    DATA     BYTE      CMP1MD
      000000D8H   SFRSYM    DATA     BIT       PCA0CN0_CCF0
      000000E0H.5 SFRSYM    DATA     BIT       ACC_ACC5
      00000098H.2 SFRSYM    DATA     BIT       TMR4CN0_TR4
      000000D8H.1 SFRSYM    DATA     BIT       PCA0CN0_CCF1
      000000E0H.6 SFRSYM    DATA     BIT       ACC_ACC6
      000000CEH   SFRSYM    DATA     WORD      TMR2
      0000009AH   SFRSYM    DATA     BYTE      SPI0FCN0
      000000C7H   SFRSYM    DATA     BYTE      ADC0ASCT
      000000D8H.2 SFRSYM    DATA     BIT       PCA0CN0_CCF2
      000000E0H.7 SFRSYM    DATA     BIT       ACC_ACC7
      00000094H   SFRSYM    DATA     WORD      TMR3
      0000009BH   SFRSYM    DATA     BYTE      SPI0FCN1
      000000C0H.2 SFRSYM    DATA     BIT       TMR5CN0_TR5
      000000D8H.3 SFRSYM    DATA     BIT       PCA0CN0_CCF3
      000000A4H   SFRSYM    DATA     WORD      TMR4
      00000094H   SFRSYM    DATA     BYTE      SBCON1
      000000D8H.4 SFRSYM    DATA     BIT       PCA0CN0_CCF4
      000000D4H   SFRSYM    DATA     WORD      TMR5
      000000C0H.3 SFRSYM    DATA     BIT       SMB0CN0_ACKRQ
      000000D8H.5 SFRSYM    DATA     BIT       PCA0CN0_CCF5
      000000FFH   SFRSYM    DATA     BYTE      VDM0CN
      000000F1H   SFRSYM    DATA     BYTE      P0MDIN
      000000AFH   SFRSYM    DATA     BYTE      CLU0FN
      00000098H.4 SFRSYM    DATA     BIT       SCON0_REN
      000000ACH   SFRSYM    DATA     BYTE      SMB0TC
      000000F2H   SFRSYM    DATA     BYTE      P1MDIN
      000000B2H   SFRSYM    DATA     BYTE      CLU1FN
      000000C8H.4 SFRSYM    DATA     BIT       SCON1_REN
      000000F3H   SFRSYM    DATA     BYTE      P2MDIN
      000000B5H   SFRSYM    DATA     BYTE      CLU2FN
      000000C0H.4 SFRSYM    DATA     BIT       SMB0CN0_STO
      000000F4H   SFRSYM    DATA     BYTE      P3MDIN
      000000B9H   SFRSYM    DATA     BYTE      I2C0STAT
      000000BBH   SFRSYM    DATA     BYTE      I2C0DOUT
      000000BEH   SFRSYM    DATA     BYTE      CLU3FN
      00000096H   SFRSYM    DATA     BYTE      SBRLH1
      000000FEH   SFRSYM    DATA     BYTE      P0MASK
      000000D8H.5 SFRSYM    DATA     BIT       UART1FCN1_TXHOLD
      000000EEH   SFRSYM    DATA     BYTE      P1MASK
      000000FCH   SFRSYM    DATA     BYTE      P2MASK
      000000D0H.3 SFRSYM    DATA     BIT       PSW_RS0
      000000D8H.7 SFRSYM    DATA     BIT       PCA0CN0_CF
      0000009EH   SFRSYM    DATA     BYTE      PCA0CENT
      000000BAH   SFRSYM    DATA     BYTE      I2C0CN0
      000000D2H   SFRSYM    DATA     BYTE      CRC0ST
      000000F8H.4 SFRSYM    DATA     BIT       SPI0CN0_RXOVRN
      000000D0H.4 SFRSYM    DATA     BIT       PSW_RS1
      00000095H   SFRSYM    DATA     BYTE      SBRLL1
      000000C8H.2 SFRSYM    DATA     BIT       SCON1_RBX
      00000091H   SFRSYM    DATA     BYTE      DAC0CF0
      000000BCH   SFRSYM    DATA     BYTE      ADC0CF0
      000000C8H   SFRSYM    DATA     BIT       TMR2CN0_T2XCLK0
      00000093H   SFRSYM    DATA     BYTE      DAC1CF0
      00000092H   SFRSYM    DATA     BYTE      DAC0CF1
      000000B9H   SFRSYM    DATA     BYTE      ADC0CF1
      000000C8H.1 SFRSYM    DATA     BIT       TMR2CN0_T2XCLK1
      000000C8H.3 SFRSYM    DATA     BIT       SCON1_TBX
LX51 LINKER/LOCATER V4.66.30.0                                                        04/24/2017  21:26:22  PAGE 60


      000000E8H.7 SFRSYM    DATA     BIT       ADC0CN0_ADEN
      00000089H   SFRSYM    DATA     BYTE      TMOD
      00000088H   SFRSYM    DATA     BYTE      TCON
      00000095H   SFRSYM    DATA     BYTE      DAC2CF0
      00000094H   SFRSYM    DATA     BYTE      DAC1CF1
      000000DFH   SFRSYM    DATA     BYTE      ADC0CF2
      0000009AH   SFRSYM    DATA     BYTE      DAC3CF0
      00000096H   SFRSYM    DATA     BYTE      DAC2CF1
      000000CFH   SFRSYM    DATA     BYTE      CRC0FLIP
      000000D0H   SFRSYM    DATA     BIT       PSW_PARITY
      000000A8H.4 SFRSYM    DATA     BIT       IE_ES0
      0000009CH   SFRSYM    DATA     BYTE      DAC3CF1
      0000009FH   SFRSYM    DATA     BYTE      CMP0MX
      00000098H   SFRSYM    DATA     BIT       TMR4CN0_T4XCLK0
      000000A8H.1 SFRSYM    DATA     BIT       IE_ET0
      000000AAH   SFRSYM    DATA     BYTE      CMP1MX
      00000098H.1 SFRSYM    DATA     BIT       TMR4CN0_T4XCLK1
      000000A8H.3 SFRSYM    DATA     BIT       IE_ET1
      000000D4H   SFRSYM    DATA     BYTE      P0SKIP
      000000D1H   SFRSYM    DATA     BYTE      CLOUT0
      000000D8H   SFRSYM    DATA     BIT       UART1FCN1_RIE
      000000C0H   SFRSYM    DATA     BIT       TMR5CN0_T5XCLK0
      000000A8H.5 SFRSYM    DATA     BIT       IE_ET2
      00000088H   SFRSYM    DATA     BIT       DACGCF0_D1SRC0
      000000D5H   SFRSYM    DATA     BYTE      P1SKIP
      000000C0H.1 SFRSYM    DATA     BIT       TMR5CN0_T5XCLK1
      00000088H.1 SFRSYM    DATA     BIT       DACGCF0_D1SRC1
      000000CCH   SFRSYM    DATA     BYTE      P2SKIP
      00000084H   SFRSYM    DATA     BYTE      CLU0MX
      000000E8H   SFRSYM    DATA     BYTE      ADC0CN0
      000000D8H.4 SFRSYM    DATA     BIT       UART1FCN1_TIE
      000000A8H   SFRSYM    DATA     BIT       IE_EX0
      00000088H.4 SFRSYM    DATA     BIT       DACGCF0_D3SRC0
      00000085H   SFRSYM    DATA     BYTE      CLU1MX
      000000B2H   SFRSYM    DATA     BYTE      ADC0CN1
      000000D8H.6 SFRSYM    DATA     BIT       PCA0CN0_CR
      000000A8H.2 SFRSYM    DATA     BIT       IE_EX1
      00000088H.5 SFRSYM    DATA     BIT       DACGCF0_D3SRC1
      00000091H   SFRSYM    DATA     BYTE      CLU2MX
      000000B3H   SFRSYM    DATA     BYTE      ADC0CN2
      000000C8H.7 SFRSYM    DATA     BIT       SCON1_OVR
      000000AAH   SFRSYM    DATA     BYTE      PSTAT0
      000000AEH   SFRSYM    DATA     BYTE      CLU3MX
      00000098H.7 SFRSYM    DATA     BIT       SCON0_SMODE
      000000B5H   SFRSYM    DATA     BYTE      DEVICEID
      000000A9H   SFRSYM    DATA     BYTE      CLKSEL
      000000F8H   SFRSYM    DATA     BIT       SPI0CN0_SPIEN
      00000085H   SFRSYM    DATA     BYTE      DAC0H
      000000F0H   SFRSYM    DATA     BYTE      B
      000000BEH   SFRSYM    DATA     BYTE      ADC0H
      000000FFH   SFRSYM    DATA     BYTE      I2C0ADM
      0000008AH   SFRSYM    DATA     BYTE      DAC1H
      00000088H.2 SFRSYM    DATA     BIT       DACGCF0_D1AMEN
      0000008CH   SFRSYM    DATA     BYTE      DAC2H
      0000008EH   SFRSYM    DATA     BYTE      DAC3H
      00000088H.6 SFRSYM    DATA     BIT       DACGCF0_D3AMEN
      000000CAH   SFRSYM    DATA     WORD      TMR2RL
      00000084H   SFRSYM    DATA     BYTE      DAC0L
      000000BDH   SFRSYM    DATA     BYTE      ADC0L
      00000092H   SFRSYM    DATA     WORD      TMR3RL
      00000089H   SFRSYM    DATA     BYTE      DAC1L
      000000A2H   SFRSYM    DATA     WORD      TMR4RL
LX51 LINKER/LOCATER V4.66.30.0                                                        04/24/2017  21:26:22  PAGE 61


      000000D8H   SFRSYM    DATA     BYTE      PCA0CN0
      0000008BH   SFRSYM    DATA     BYTE      DAC2L
      000000E0H   SFRSYM    DATA     BYTE      ACC
      000000D2H   SFRSYM    DATA     WORD      TMR5RL
      000000D9H   SFRSYM    DATA     BYTE      UART0PCF
      0000008DH   SFRSYM    DATA     BYTE      DAC3L
      000000FBH   SFRSYM    DATA     WORD      PCA0CP0
      000000DAH   SFRSYM    DATA     BYTE      UART1PCF
      000000E9H   SFRSYM    DATA     WORD      PCA0CP1
      00000088H   SFRSYM    DATA     BYTE      DACGCF0
      000000EBH   SFRSYM    DATA     WORD      PCA0CP2
      000000BCH   SFRSYM    DATA     BYTE      I2C0DIN
      00000098H   SFRSYM    DATA     BYTE      DACGCF1
      000000CEH   SFRSYM    DATA     BYTE      CRC0CN0
      000000F4H   SFRSYM    DATA     WORD      PCA0CP3
      0000008CH   SFRSYM    DATA     BYTE      TH0
      000000A2H   SFRSYM    DATA     BYTE      DACGCF2
      00000086H   SFRSYM    DATA     BYTE      CRC0CN1
      000000B8H.4 SFRSYM    DATA     BIT       IP_PS0
      00000084H   SFRSYM    DATA     WORD      PCA0CP4
      000000FAH   SFRSYM    DATA     BYTE      UART1FCT
      0000008DH   SFRSYM    DATA     BYTE      TH1
      000000FAH   SFRSYM    DATA     BYTE      PCA0H
      000000F5H   SFRSYM    DATA     BYTE      I2C0FCT
      000000B8H.1 SFRSYM    DATA     BIT       IP_PT0
      000000DDH   SFRSYM    DATA     WORD      PCA0CP5
      000000C7H   SFRSYM    DATA     BYTE      CLIE0
      000000B8H.3 SFRSYM    DATA     BIT       IP_PT1
      00000088H.3 SFRSYM    DATA     BIT       DACGCF0_D01REFSL
      000000B5H   SFRSYM    DATA     WORD      ADC0ASA
      000000E8H   SFRSYM    DATA     BYTE      CLIF0
      000000C0H.2 SFRSYM    DATA     BIT       SMB0CN0_ARBLOST
      000000B8H.5 SFRSYM    DATA     BIT       IP_PT2
      0000008AH   SFRSYM    DATA     BYTE      TL0
      000000D0H.5 SFRSYM    DATA     BIT       PSW_F0
      000000A8H.6 SFRSYM    DATA     BIT       IE_ESPI0
      0000008BH   SFRSYM    DATA     BYTE      TL1
      000000F9H   SFRSYM    DATA     BYTE      PCA0L
      000000C0H   SFRSYM    DATA     BIT       SMB0CN0_SI
      000000D0H.1 SFRSYM    DATA     BIT       PSW_F1
      00000080H   SFRSYM    DATA     BIT       P0_B0
      000000B8H   SFRSYM    DATA     BIT       IP_PX0
      00000090H   SFRSYM    DATA     BIT       P1_B0
      00000080H.1 SFRSYM    DATA     BIT       P0_B1
      000000B8H.2 SFRSYM    DATA     BIT       IP_PX1
      00000088H.7 SFRSYM    DATA     BIT       DACGCF0_D23REFSL
      0000009EH   SFRSYM    DATA     BYTE      UART1LIN
      0000009BH   SFRSYM    DATA     BYTE      CMP0CN0
      000000C6H   SFRSYM    DATA     BYTE      CLEN0
      00000088H.1 SFRSYM    DATA     BIT       TCON_IE0
      000000A0H   SFRSYM    DATA     BIT       P2_B0
      00000090H.1 SFRSYM    DATA     BIT       P1_B1
      00000080H.2 SFRSYM    DATA     BIT       P0_B2
      000000BFH   SFRSYM    DATA     BYTE      CMP1CN0
      00000099H   SFRSYM    DATA     BYTE      CMP0CN1
      00000088H.3 SFRSYM    DATA     BIT       TCON_IE1
      000000B0H   SFRSYM    DATA     BIT       P3_B0
      000000A0H.1 SFRSYM    DATA     BIT       P2_B1
      00000090H.2 SFRSYM    DATA     BIT       P1_B2
      00000080H.3 SFRSYM    DATA     BIT       P0_B3
      000000C0H   SFRSYM    DATA     BYTE      SMB0CN0
      000000ACH   SFRSYM    DATA     BYTE      CMP1CN1
LX51 LINKER/LOCATER V4.66.30.0                                                        04/24/2017  21:26:22  PAGE 62


      000000B0H.1 SFRSYM    DATA     BIT       P3_B1
      000000A0H.2 SFRSYM    DATA     BIT       P2_B2
      00000090H.3 SFRSYM    DATA     BIT       P1_B3
      00000080H.4 SFRSYM    DATA     BIT       P0_B4
      000000B0H.2 SFRSYM    DATA     BIT       P3_B2
      000000A0H.3 SFRSYM    DATA     BIT       P2_B3
      00000090H.4 SFRSYM    DATA     BIT       P1_B4
      00000080H.5 SFRSYM    DATA     BIT       P0_B5
      00000098H   SFRSYM    DATA     BIT       DACGCF1_D0UDIS
      000000D8H.1 SFRSYM    DATA     BIT       UART1FCN1_RXTO0
      000000B0H.3 SFRSYM    DATA     BIT       P3_B3
      000000A0H.4 SFRSYM    DATA     BIT       P2_B4
      00000090H.5 SFRSYM    DATA     BIT       P1_B5
      00000080H.6 SFRSYM    DATA     BIT       P0_B6
      00000098H.1 SFRSYM    DATA     BIT       DACGCF1_D1UDIS
      000000EEH   SFRSYM    DATA     BYTE      EIP1H
      000000D8H.2 SFRSYM    DATA     BIT       UART1FCN1_RXTO1
      000000B0H.4 SFRSYM    DATA     BIT       P3_B4
      000000A0H.5 SFRSYM    DATA     BIT       P2_B5
      00000090H.6 SFRSYM    DATA     BIT       P1_B6
      00000080H.7 SFRSYM    DATA     BIT       P0_B7
      00000098H.2 SFRSYM    DATA     BIT       DACGCF1_D2UDIS
      000000C5H   SFRSYM    DATA     BYTE      SMB0RXLN
      000000F6H   SFRSYM    DATA     BYTE      EIP2H
      000000A0H.6 SFRSYM    DATA     BIT       P2_B6
      00000090H.7 SFRSYM    DATA     BIT       P1_B7
      00000098H.3 SFRSYM    DATA     BIT       DACGCF1_D3UDIS
      000000B0H.7 SFRSYM    DATA     BIT       P3_B7
      00000083H   SFRSYM    DATA     BYTE      DPH
      000000C4H   SFRSYM    DATA     BYTE      ADC0GTH
      000000C8H.7 SFRSYM    DATA     BIT       TMR2CN0_TF2H
      000000C8H.3 SFRSYM    DATA     BIT       TMR2CN0_T2SPLIT
      000000D0H.6 SFRSYM    DATA     BIT       PSW_AC
      000000F8H   SFRSYM    DATA     BYTE      SPI0CN0
      000000C7H   SFRSYM    DATA     BYTE      HFO0CAL
      00000088H.5 SFRSYM    DATA     BIT       TCON_TF0
      00000098H   SFRSYM    DATA     BIT       SCON0_RI
      000000D6H   SFRSYM    DATA     BYTE      HFO1CAL
      00000082H   SFRSYM    DATA     BYTE      DPL
      00000088H.7 SFRSYM    DATA     BIT       TCON_TF1
      000000C8H   SFRSYM    DATA     BIT       SCON1_RI
      00000099H   SFRSYM    DATA     BYTE      SBUF0
      00000087H   SFRSYM    DATA     BYTE      PCON0
      000000F2H   SFRSYM    DATA     BYTE      IPH
      000000C3H   SFRSYM    DATA     BYTE      ADC0GTL
      00000098H.7 SFRSYM    DATA     BIT       TMR4CN0_TF4H
      00000098H.3 SFRSYM    DATA     BIT       TMR4CN0_T4SPLIT
      000000C8H.6 SFRSYM    DATA     BIT       TMR2CN0_TF2L
      00000098H.1 SFRSYM    DATA     BIT       SCON0_TI
      00000092H   SFRSYM    DATA     BYTE      SBUF1
      000000CDH   SFRSYM    DATA     BYTE      PCON1
      000000C6H   SFRSYM    DATA     BYTE      ADC0LTH
      00000088H   SFRSYM    DATA     BIT       TCON_IT0
      000000C8H.1 SFRSYM    DATA     BIT       SCON1_TI
      000000EFH   SFRSYM    DATA     BYTE      RSTSRC
      000000FDH   SFRSYM    DATA     BYTE      P0MAT
      000000CBH   SFRSYM    DATA     BYTE      CRC0DAT
      000000C0H.7 SFRSYM    DATA     BIT       TMR5CN0_TF5H
      000000C0H.3 SFRSYM    DATA     BIT       TMR5CN0_T5SPLIT
      00000088H.2 SFRSYM    DATA     BIT       TCON_IT1
      000000D7H   SFRSYM    DATA     BYTE      SFRSTACK
      00000098H   SFRSYM    DATA     BYTE      SCON0
LX51 LINKER/LOCATER V4.66.30.0                                                        04/24/2017  21:26:22  PAGE 63


      000000F6H   SFRSYM    DATA     BYTE      PRTDRV
      000000EDH   SFRSYM    DATA     BYTE      P1MAT
      000000E8H.3 SFRSYM    DATA     BIT       ADC0CN0_ADWINT
      00000093H   SFRSYM    DATA     BYTE      SMOD1
      000000C8H   SFRSYM    DATA     BYTE      SCON1
      000000FBH   SFRSYM    DATA     BYTE      P2MAT
      00000098H.6 SFRSYM    DATA     BIT       TMR4CN0_TF4L
      000000E8H.4 SFRSYM    DATA     BIT       ADC0CN0_ADBUSY
      000000D6H   SFRSYM    DATA     BYTE      SMB0ADM
      000000C5H   SFRSYM    DATA     BYTE      ADC0LTL
      000000F8H.5 SFRSYM    DATA     BIT       SPI0CN0_MODF
      000000B8H.6 SFRSYM    DATA     BIT       IP_PSPI0
      000000E8H.1 SFRSYM    DATA     BIT       ADC0CN0_ADGN0
      0000009CH   SFRSYM    DATA     BYTE      PCA0CLR
      000000C0H.6 SFRSYM    DATA     BIT       TMR5CN0_TF5L
      000000E8H.2 SFRSYM    DATA     BIT       ADC0CN0_ADGN1
      000000C8H   SFRSYM    DATA     BYTE      TMR2CN0
      00000091H   SFRSYM    DATA     BYTE      TMR3CN0
      000000FDH   SFRSYM    DATA     BYTE      TMR2CN1
      00000098H   SFRSYM    DATA     BYTE      TMR4CN0
      000000FEH   SFRSYM    DATA     BYTE      TMR3CN1
      000000C0H   SFRSYM    DATA     BYTE      TMR5CN0
      000000FFH   SFRSYM    DATA     BYTE      TMR4CN1
      000000D7H   SFRSYM    DATA     BYTE      SMB0ADR
      00000088H.4 SFRSYM    DATA     BIT       TCON_TR0
      000000F1H   SFRSYM    DATA     BYTE      TMR5CN1
      000000C8H.4 SFRSYM    DATA     BIT       TMR2CN0_TF2CEN
      00000088H.6 SFRSYM    DATA     BIT       TCON_TR1
      000000C2H   SFRSYM    DATA     BYTE      SMB0DAT
      000000CFH   SFRSYM    DATA     BYTE      TMR2H
      000000A1H   SFRSYM    DATA     BYTE      SPI0CFG
      00000095H   SFRSYM    DATA     BYTE      TMR3H
      000000EFH   SFRSYM    DATA     BYTE      HFOCN
      000000D3H   SFRSYM    DATA     BYTE      CRC0CNT
      000000A5H   SFRSYM    DATA     BYTE      TMR4H
      00000098H.4 SFRSYM    DATA     BIT       TMR4CN0_TF4CEN
      000000D5H   SFRSYM    DATA     BYTE      TMR5H
      000000EFH   SFRSYM    DATA     BYTE      SMB0FCT
      00000096H   SFRSYM    DATA     BYTE      PCA0POL
      000000CEH   SFRSYM    DATA     BYTE      TMR2L
      000000C0H.4 SFRSYM    DATA     BIT       TMR5CN0_TF5CEN
      000000F8H.7 SFRSYM    DATA     BIT       SPI0CN0_SPIF
      00000094H   SFRSYM    DATA     BYTE      TMR3L
      000000A8H.7 SFRSYM    DATA     BIT       IE_EA
      000000A4H   SFRSYM    DATA     BYTE      TMR4L
      000000D4H   SFRSYM    DATA     BYTE      TMR5L
      000000C8H.5 SFRSYM    DATA     BIT       TMR2CN0_TF2LEN
      000000F8H.6 SFRSYM    DATA     BIT       SPI0CN0_WCOL
      000000F8H.2 SFRSYM    DATA     BIT       SPI0CN0_NSSMD0
      000000D0H.7 SFRSYM    DATA     BIT       PSW_CY
      0000009DH   SFRSYM    DATA     BYTE      UART1FCN0
      000000DFH   SFRSYM    DATA     BYTE      SPI0PCF
      000000A3H   SFRSYM    DATA     BYTE      SPI0DAT
      000000ADH   SFRSYM    DATA     BYTE      I2C0FCN0
      000000F8H.3 SFRSYM    DATA     BIT       SPI0CN0_NSSMD1
      000000BDH   SFRSYM    DATA     WORD      ADC0
      000000D8H   SFRSYM    DATA     BYTE      UART1FCN1
      000000ABH   SFRSYM    DATA     BYTE      I2C0FCN1
      000000E8H   SFRSYM    DATA     BIT       CLIF0_C0FIF
      00000098H.5 SFRSYM    DATA     BIT       TMR4CN0_TF4LEN
      000000E8H.2 SFRSYM    DATA     BIT       CLIF0_C1FIF
      000000D0H   SFRSYM    DATA     BYTE      PSW
LX51 LINKER/LOCATER V4.66.30.0                                                        04/24/2017  21:26:22  PAGE 64


      000000F7H   SFRSYM    DATA     BYTE      PCA0PWM
      000000E8H.4 SFRSYM    DATA     BIT       CLIF0_C2FIF
      000000F7H   SFRSYM    DATA     BYTE      SPI0FCT
      000000B6H   SFRSYM    DATA     BYTE      REVID
      000000C0H.5 SFRSYM    DATA     BIT       TMR5CN0_TF5LEN
      000000E8H.6 SFRSYM    DATA     BIT       CLIF0_C3FIF
      000000B7H   SFRSYM    DATA     BYTE      FLKEY
      00000020H.0 SYMBOL    BIT      BIT       useNss
      00000017H   SYMBOL    DATA     BYTE      rxCountRemaining
      00000020H.1 SYMBOL    BIT      BIT       useRx
      00000018H   SYMBOL    DATA     BYTE      txCountRemaining
      00000020H.2 SYMBOL    BIT      BIT       useTx
      00000019H   SYMBOL    DATA     BYTE      bytesRemaining
      00000020H.3 SYMBOL    BIT      BIT       modeIsMaster
      0000001AH   SYMBOL    DATA     ---       pRxBuf
      0000001CH   SYMBOL    DATA     ---       pTxBuf
      00000020H.4 SYMBOL    BIT      BIT       initIsValid
      0100136DH   SYMBOL    CODE     ---       SPI0_internalInit

      0100136DH   BLOCK     CODE     ---       LVL=0
      0100136DH   LINE      CODE     ---       #50
      0100136DH   LINE      CODE     ---       #51
      0100136DH   LINE      CODE     ---       #53
      01001373H   LINE      CODE     ---       #54
      0100137BH   LINE      CODE     ---       #57
      0100137DH   LINE      CODE     ---       #58
      ---         BLOCKEND  ---      ---       LVL=0
      00000006H   SYMBOL    DATA     BYTE      ret
      00000007H   SYMBOL    DATA     BYTE      savedPage
      00000007H   SYMBOL    DATA     BYTE      flags
      00000006H   SYMBOL    DATA     BYTE      savedPage
      00000007H   SYMBOL    DATA     BYTE      value
      00000006H   SYMBOL    DATA     BYTE      savedPage
      00000007H   SYMBOL    DATA     BYTE      value
      00000006H   SYMBOL    DATA     BYTE      savedPage
      00000006H   SYMBOL    DATA     BYTE      ret
      00000007H   SYMBOL    DATA     BYTE      savedPage
      00000006H   SYMBOL    DATA     BYTE      ret
      00000007H   SYMBOL    DATA     BYTE      savedPage
      00000000H   SYMBOL    DATA     ---       pTxBuffer
      00000082H   SYMBOL    DATA     ---       pRxBuffer
      00000003H   SYMBOL    DATA     BYTE      dir
      00000001H   SYMBOL    DATA     BYTE      txCount
      00000007H   SYMBOL    DATA     BYTE      count
      00000006H   SYMBOL    DATA     BYTE      savedPage
      00000007H   SYMBOL    DATA     BYTE      savedPage
      00000007H   SYMBOL    DATA     BYTE      savedPage
      00000007H   SYMBOL    DATA     BYTE      savedPage
      00000007H   SYMBOL    DATA     BYTE      savedPage
      00000007H   SYMBOL    DATA     BYTE      clockMode
      00000006H   SYMBOL    DATA     BYTE      savedPage
      00000006H   SYMBOL    DATA     WORD      divider
      00000005H   SYMBOL    DATA     BYTE      savedPage
      00000007H   SYMBOL    DATA     BYTE      savedPage
      00000007H   SYMBOL    DATA     BYTE      savedPage
      00000007H   SYMBOL    DATA     BYTE      savedPage
      00000006H   SYMBOL    DATA     BYTE      ret
      00000007H   SYMBOL    DATA     BYTE      savedPage
      00000006H   SYMBOL    DATA     BYTE      ret
      00000007H   SYMBOL    DATA     BYTE      savedPage
      00000007H   SYMBOL    DATA     BYTE      txThreshold
      00000005H   SYMBOL    DATA     BYTE      rxThreshold
LX51 LINKER/LOCATER V4.66.30.0                                                        04/24/2017  21:26:22  PAGE 65


      00000003H   SYMBOL    DATA     BYTE      rxTimeout
      00000004H   SYMBOL    DATA     BYTE      fifoCtrl
      00000006H   SYMBOL    DATA     BYTE      savedPage

      01001055H   BLOCK     CODE     ---       LVL=0
      00000007H   SYMBOL    DATA     ---       pTxBuffer
      00000004H   SYMBOL    DATA     ---       pRxBuffer
      00000003H   SYMBOL    DATA     BYTE      dir
      00000025H   SYMBOL    DATA     BYTE      xferCount
      01001055H   BLOCK     CODE     NEAR LAB  LVL=1
      00000007H   SYMBOL    DATA     BYTE      savedPage
      ---         BLOCKEND  ---      ---       LVL=1
      01001055H   LINE      CODE     ---       #591
      01001055H   LINE      CODE     ---       #597
      01001055H   LINE      CODE     ---       #600
      01001058H   LINE      CODE     ---       #601
      0100105BH   LINE      CODE     ---       #602
      0100105EH   LINE      CODE     ---       #603
      01001060H   LINE      CODE     ---       #604
      01001064H   LINE      CODE     ---       #605
      01001068H   LINE      CODE     ---       #606
      0100106DH   LINE      CODE     ---       #608
      01001072H   LINE      CODE     ---       #611
      01001075H   LINE      CODE     ---       #612
      01001075H   LINE      CODE     ---       #613
      01001078H   LINE      CODE     ---       #614
      01001078H   LINE      CODE     ---       #618
      01001078H   LINE      CODE     ---       #620
      0100107BH   LINE      CODE     ---       #621
      0100107BH   LINE      CODE     ---       #634
      0100107EH   LINE      CODE     ---       #637
      01001081H   LINE      CODE     ---       #638
      01001084H   LINE      CODE     ---       #641
      0100108AH   LINE      CODE     ---       #642
      0100108AH   LINE      CODE     ---       #643
      0100108CH   LINE      CODE     ---       #644
      0100108CH   LINE      CODE     ---       #648
      01001093H   LINE      CODE     ---       #649
      01001093H   LINE      CODE     ---       #651
      01001096H   LINE      CODE     ---       #652
      01001096H   LINE      CODE     ---       #653
      0100109BH   LINE      CODE     ---       #654
      0100109DH   LINE      CODE     ---       #655
      0100109FH   LINE      CODE     ---       #659
      0100109FH   LINE      CODE     ---       #660
      010010A2H   LINE      CODE     ---       #661
      010010A2H   LINE      CODE     ---       #662
      010010A4H   LINE      CODE     ---       #663
      010010A4H   LINE      CODE     ---       #684
      010010A6H   LINE      CODE     ---       #687
      ---         BLOCKEND  ---      ---       LVL=0
      00000007H   SYMBOL    DATA     BYTE      savedPage

      01000D70H   BLOCK     CODE     ---       LVL=0
      01000D8DH   BLOCK     CODE     NEAR LAB  LVL=1
      00000007H   SYMBOL    DATA     BYTE      intFlags
      00000007H   SYMBOL    DATA     BYTE      fifoFlags
      01000DBEH   BLOCK     CODE     NEAR LAB  LVL=2
      00000026H   SYMBOL    DATA     BYTE      dummy
      ---         BLOCKEND  ---      ---       LVL=2
      ---         BLOCKEND  ---      ---       LVL=1
      01000D70H   LINE      CODE     ---       #733
LX51 LINKER/LOCATER V4.66.30.0                                                        04/24/2017  21:26:22  PAGE 66


      01000D8DH   LINE      CODE     ---       #740
      01000D90H   LINE      CODE     ---       #743
      01000D94H   LINE      CODE     ---       #744
      01000D99H   LINE      CODE     ---       #749
      01000D9BH   LINE      CODE     ---       #754
      01000D9FH   LINE      CODE     ---       #755
      01000D9FH   LINE      CODE     ---       #761
      01000DA8H   LINE      CODE     ---       #763
      01000DA8H   LINE      CODE     ---       #765
      01000DABH   LINE      CODE     ---       #766
      01000DABH   LINE      CODE     ---       #767
      01000DB4H   LINE      CODE     ---       #768
      01000DBCH   LINE      CODE     ---       #769
      01000DBEH   LINE      CODE     ---       #773
      01000DBEH   LINE      CODE     ---       #774
      01000DC1H   LINE      CODE     ---       #775
      01000DC1H   LINE      CODE     ---       #776
      01000DC4H   LINE      CODE     ---       #780
      01000DC4H   LINE      CODE     ---       #781
      01000DC4H   LINE      CODE     ---       #783
      01000DCAH   LINE      CODE     ---       #784
      01000DCAH   LINE      CODE     ---       #785
      01000DCCH   LINE      CODE     ---       #786
      01000DCCH   LINE      CODE     ---       #788
      01000DCFH   LINE      CODE     ---       #789
      01000DD1H   LINE      CODE     ---       #794
      01000DD1H   LINE      CODE     ---       #795
      01000DD4H   LINE      CODE     ---       #796
      01000DD4H   LINE      CODE     ---       #797
      01000DD4H   LINE      CODE     ---       #804
      01000DDBH   LINE      CODE     ---       #806
      01000DDBH   LINE      CODE     ---       #808
      01000DDEH   LINE      CODE     ---       #809
      01000DDEH   LINE      CODE     ---       #810
      01000DE3H   LINE      CODE     ---       #811
      01000DE5H   LINE      CODE     ---       #812
      01000DE7H   LINE      CODE     ---       #816
      01000DE7H   LINE      CODE     ---       #817
      01000DEAH   LINE      CODE     ---       #818
      01000DEAH   LINE      CODE     ---       #819
      01000DECH   LINE      CODE     ---       #820
      01000DECH   LINE      CODE     ---       #821
      01000DECH   LINE      CODE     ---       #833
      ---         BLOCKEND  ---      ---       LVL=0

      ---         MODULE    ---      ---       INITDEVICE
      01001441H   PUBLIC    CODE     ---       RSTSRC_0_enter_DefaultMode_from_RESET
      0100143DH   PUBLIC    CODE     ---       EXTINT_0_enter_DefaultMode_from_RESET
      0100140EH   PUBLIC    CODE     ---       INTERRUPT_0_enter_DefaultMode_from_RESET
      010013BCH   PUBLIC    CODE     ---       SPI_0_enter_DefaultMode_from_RESET
      010013FBH   PUBLIC    CODE     ---       TIMER_SETUP_0_enter_DefaultMode_from_RESET
      01001305H   PUBLIC    CODE     ---       TIMER16_3_enter_DefaultMode_from_RESET
      0100138EH   PUBLIC    CODE     ---       TIMER01_0_enter_DefaultMode_from_RESET
      01001405H   PUBLIC    CODE     ---       CLOCK_0_enter_DefaultMode_from_RESET
      010013F1H   PUBLIC    CODE     ---       PBCFG_0_enter_DefaultMode_from_RESET
      010013E7H   PUBLIC    CODE     ---       PORTS_2_enter_DefaultMode_from_RESET
      010013DDH   PUBLIC    CODE     ---       PORTS_1_enter_DefaultMode_from_RESET
      010013D3H   PUBLIC    CODE     ---       PORTS_0_enter_DefaultMode_from_RESET
      010013C9H   PUBLIC    CODE     ---       WDT_0_enter_DefaultMode_from_RESET
      01001228H   PUBLIC    CODE     ---       enter_DefaultMode_from_RESET
      000000A2H   SFRSYM    DATA     BYTE      SPI0CKR
      00000080H   SFRSYM    DATA     BYTE      P0
LX51 LINKER/LOCATER V4.66.30.0                                                        04/24/2017  21:26:22  PAGE 67


      000000C8H.6 SFRSYM    DATA     BIT       SCON1_PERR
      000000D0H.2 SFRSYM    DATA     BIT       PSW_OV
      00000086H   SFRSYM    DATA     BYTE      XOSC0CN
      00000090H   SFRSYM    DATA     BYTE      P1
      000000F8H.1 SFRSYM    DATA     BIT       SPI0CN0_TXNF
      00000097H   SFRSYM    DATA     BYTE      WDTCN
      000000A0H   SFRSYM    DATA     BYTE      P2
      000000B0H   SFRSYM    DATA     BYTE      P3
      000000C0H.7 SFRSYM    DATA     BIT       SMB0CN0_MASTER
      000000F9H   SFRSYM    DATA     WORD      PCA0
      000000E6H   SFRSYM    DATA     BYTE      EIE1
      000000C0H.1 SFRSYM    DATA     BIT       SMB0CN0_ACK
      000000E8H.1 SFRSYM    DATA     BIT       CLIF0_C0RIF
      000000F3H   SFRSYM    DATA     BYTE      EIE2
      000000E8H.3 SFRSYM    DATA     BIT       CLIF0_C1RIF
      000000E8H.5 SFRSYM    DATA     BIT       CLIF0_C2RIF
      0000008FH   SFRSYM    DATA     BYTE      PSCTL
      000000E8H.7 SFRSYM    DATA     BIT       CLIF0_C3RIF
      000000E4H   SFRSYM    DATA     BYTE      IT01CF
      000000C0H.6 SFRSYM    DATA     BIT       SMB0CN0_TXMODE
      000000ADH   SFRSYM    DATA     BYTE      DERIVID
      000000A7H   SFRSYM    DATA     BYTE      SFRPAGE
      000000A4H   SFRSYM    DATA     BYTE      P0MDOUT
      000000A5H   SFRSYM    DATA     BYTE      P1MDOUT
      000000E8H.5 SFRSYM    DATA     BIT       ADC0CN0_ADINT
      000000CBH   SFRSYM    DATA     BYTE      TMR2RLH
      000000A6H   SFRSYM    DATA     BYTE      P2MDOUT
      000000A8H   SFRSYM    DATA     BYTE      IE
      00000093H   SFRSYM    DATA     BYTE      TMR3RLH
      0000009CH   SFRSYM    DATA     BYTE      P3MDOUT
      000000A3H   SFRSYM    DATA     BYTE      TMR4RLH
      000000BBH   SFRSYM    DATA     BYTE      EIP1
      000000D3H   SFRSYM    DATA     BYTE      TMR5RLH
      000000EDH   SFRSYM    DATA     BYTE      EIP2
      00000098H.2 SFRSYM    DATA     BIT       SCON0_RB8
      000000CAH   SFRSYM    DATA     BYTE      TMR2RLL
      000000FCH   SFRSYM    DATA     BYTE      PCA0CPH0
      00000092H   SFRSYM    DATA     BYTE      TMR3RLL
      000000EAH   SFRSYM    DATA     BYTE      PCA0CPH1
      00000098H.3 SFRSYM    DATA     BIT       SCON0_TB8
      000000F0H   SFRSYM    DATA     BIT       B_B0
      00000082H   SFRSYM    DATA     WORD      DP
      000000A2H   SFRSYM    DATA     BYTE      TMR4RLL
      000000ECH   SFRSYM    DATA     BYTE      PCA0CPH2
      000000F0H.1 SFRSYM    DATA     BIT       B_B1
      000000C3H   SFRSYM    DATA     WORD      ADC0GT
      000000D2H   SFRSYM    DATA     BYTE      TMR5RLL
      000000F5H   SFRSYM    DATA     BYTE      PCA0CPH3
      000000BDH   SFRSYM    DATA     BYTE      I2C0SLAD
      000000D8H.3 SFRSYM    DATA     BIT       UART1FCN1_RFRQ
      000000F0H.2 SFRSYM    DATA     BIT       B_B2
      000000BCH   SFRSYM    DATA     BYTE      SFRPGCN
      000000FBH   SFRSYM    DATA     BYTE      PCA0CPL0
      00000085H   SFRSYM    DATA     BYTE      PCA0CPH4
      000000F0H.3 SFRSYM    DATA     BIT       B_B3
      000000D9H   SFRSYM    DATA     BYTE      PCA0MD
      000000DAH   SFRSYM    DATA     BYTE      PCA0CPM0
      000000E9H   SFRSYM    DATA     BYTE      PCA0CPL1
      000000DEH   SFRSYM    DATA     BYTE      PCA0CPH5
      000000D8H.7 SFRSYM    DATA     BIT       UART1FCN1_TFRQ
      000000F0H.4 SFRSYM    DATA     BIT       B_B4
      000000DBH   SFRSYM    DATA     BYTE      PCA0CPM1
LX51 LINKER/LOCATER V4.66.30.0                                                        04/24/2017  21:26:22  PAGE 68


      000000EBH   SFRSYM    DATA     BYTE      PCA0CPL2
      000000A1H   SFRSYM    DATA     BYTE      ADC0ASCF
      000000B6H   SFRSYM    DATA     BYTE      ADC0ASAH
      000000F0H.5 SFRSYM    DATA     BIT       B_B5
      000000E8H.6 SFRSYM    DATA     BIT       ADC0CN0_IPOEN
      000000E8H   SFRSYM    DATA     BIT       ADC0CN0_TEMPE
      000000DCH   SFRSYM    DATA     BYTE      PCA0CPM2
      000000F4H   SFRSYM    DATA     BYTE      PCA0CPL3
      000000B8H   SFRSYM    DATA     BYTE      IP
      000000F0H.6 SFRSYM    DATA     BIT       B_B6
      000000C5H   SFRSYM    DATA     WORD      ADC0LT
      000000AEH   SFRSYM    DATA     BYTE      PCA0CPM3
      00000084H   SFRSYM    DATA     BYTE      PCA0CPL4
      000000D8H.6 SFRSYM    DATA     BIT       UART1FCN1_TXNF
      00000098H.5 SFRSYM    DATA     BIT       SCON0_MCE
      000000F0H.7 SFRSYM    DATA     BIT       B_B7
      000000AFH   SFRSYM    DATA     BYTE      PCA0CPM4
      000000DDH   SFRSYM    DATA     BYTE      PCA0CPL5
      000000C3H   SFRSYM    DATA     BYTE      SMB0FCN0
      000000CCH   SFRSYM    DATA     BYTE      PCA0CPM5
      000000B5H   SFRSYM    DATA     BYTE      ADC0ASAL
      000000E1H   SFRSYM    DATA     BYTE      XBR0
      000000C4H   SFRSYM    DATA     BYTE      SMB0FCN1
      000000C1H   SFRSYM    DATA     BYTE      SMB0CF
      000000E2H   SFRSYM    DATA     BYTE      XBR1
      000000C1H   SFRSYM    DATA     BYTE      PFE0CN
      000000E7H   SFRSYM    DATA     BYTE      EMI0CN
      000000C0H.5 SFRSYM    DATA     BIT       SMB0CN0_STA
      000000E3H   SFRSYM    DATA     BYTE      XBR2
      000000B1H   SFRSYM    DATA     BYTE      CLU0CF
      000000BBH   SFRSYM    DATA     BYTE      ADC0MX
      000000E0H   SFRSYM    DATA     BIT       ACC_ACC0
      000000D1H   SFRSYM    DATA     BYTE      REF0CN
      000000B3H   SFRSYM    DATA     BYTE      CLU1CF
      0000008EH   SFRSYM    DATA     BYTE      CKCON0
      000000E0H.1 SFRSYM    DATA     BIT       ACC_ACC1
      000000C9H   SFRSYM    DATA     BYTE      REG0CN
      000000CAH   SFRSYM    DATA     BYTE      CRC0IN
      000000B6H   SFRSYM    DATA     BYTE      CLU2CF
      000000A6H   SFRSYM    DATA     BYTE      CKCON1
      000000C8H.2 SFRSYM    DATA     BIT       TMR2CN0_TR2
      000000E0H.2 SFRSYM    DATA     BIT       ACC_ACC2
      000000BFH   SFRSYM    DATA     BYTE      CLU3CF
      000000E0H.3 SFRSYM    DATA     BIT       ACC_ACC3
      00000081H   SFRSYM    DATA     BYTE      SP
      0000009DH   SFRSYM    DATA     BYTE      CMP0MD
      000000E0H.4 SFRSYM    DATA     BIT       ACC_ACC4
      000000B1H   SFRSYM    DATA     BYTE      LFO0CN
      000000ABH   SFRSYM    DATA     BYTE      CMP1MD
      000000D8H   SFRSYM    DATA     BIT       PCA0CN0_CCF0
      000000E0H.5 SFRSYM    DATA     BIT       ACC_ACC5
      00000098H.2 SFRSYM    DATA     BIT       TMR4CN0_TR4
      000000D8H.1 SFRSYM    DATA     BIT       PCA0CN0_CCF1
      000000E0H.6 SFRSYM    DATA     BIT       ACC_ACC6
      000000CEH   SFRSYM    DATA     WORD      TMR2
      0000009AH   SFRSYM    DATA     BYTE      SPI0FCN0
      000000C7H   SFRSYM    DATA     BYTE      ADC0ASCT
      000000D8H.2 SFRSYM    DATA     BIT       PCA0CN0_CCF2
      000000E0H.7 SFRSYM    DATA     BIT       ACC_ACC7
      00000094H   SFRSYM    DATA     WORD      TMR3
      0000009BH   SFRSYM    DATA     BYTE      SPI0FCN1
      000000C0H.2 SFRSYM    DATA     BIT       TMR5CN0_TR5
LX51 LINKER/LOCATER V4.66.30.0                                                        04/24/2017  21:26:22  PAGE 69


      000000D8H.3 SFRSYM    DATA     BIT       PCA0CN0_CCF3
      000000A4H   SFRSYM    DATA     WORD      TMR4
      00000094H   SFRSYM    DATA     BYTE      SBCON1
      000000D8H.4 SFRSYM    DATA     BIT       PCA0CN0_CCF4
      000000D4H   SFRSYM    DATA     WORD      TMR5
      000000C0H.3 SFRSYM    DATA     BIT       SMB0CN0_ACKRQ
      000000D8H.5 SFRSYM    DATA     BIT       PCA0CN0_CCF5
      000000FFH   SFRSYM    DATA     BYTE      VDM0CN
      000000F1H   SFRSYM    DATA     BYTE      P0MDIN
      000000AFH   SFRSYM    DATA     BYTE      CLU0FN
      00000098H.4 SFRSYM    DATA     BIT       SCON0_REN
      000000ACH   SFRSYM    DATA     BYTE      SMB0TC
      000000F2H   SFRSYM    DATA     BYTE      P1MDIN
      000000B2H   SFRSYM    DATA     BYTE      CLU1FN
      000000C8H.4 SFRSYM    DATA     BIT       SCON1_REN
      000000F3H   SFRSYM    DATA     BYTE      P2MDIN
      000000B5H   SFRSYM    DATA     BYTE      CLU2FN
      000000C0H.4 SFRSYM    DATA     BIT       SMB0CN0_STO
      000000F4H   SFRSYM    DATA     BYTE      P3MDIN
      000000B9H   SFRSYM    DATA     BYTE      I2C0STAT
      000000BBH   SFRSYM    DATA     BYTE      I2C0DOUT
      000000BEH   SFRSYM    DATA     BYTE      CLU3FN
      00000096H   SFRSYM    DATA     BYTE      SBRLH1
      000000FEH   SFRSYM    DATA     BYTE      P0MASK
      000000D8H.5 SFRSYM    DATA     BIT       UART1FCN1_TXHOLD
      000000EEH   SFRSYM    DATA     BYTE      P1MASK
      000000FCH   SFRSYM    DATA     BYTE      P2MASK
      000000D0H.3 SFRSYM    DATA     BIT       PSW_RS0
      000000D8H.7 SFRSYM    DATA     BIT       PCA0CN0_CF
      0000009EH   SFRSYM    DATA     BYTE      PCA0CENT
      000000BAH   SFRSYM    DATA     BYTE      I2C0CN0
      000000D2H   SFRSYM    DATA     BYTE      CRC0ST
      000000F8H.4 SFRSYM    DATA     BIT       SPI0CN0_RXOVRN
      000000D0H.4 SFRSYM    DATA     BIT       PSW_RS1
      00000095H   SFRSYM    DATA     BYTE      SBRLL1
      000000C8H.2 SFRSYM    DATA     BIT       SCON1_RBX
      00000091H   SFRSYM    DATA     BYTE      DAC0CF0
      000000BCH   SFRSYM    DATA     BYTE      ADC0CF0
      000000C8H   SFRSYM    DATA     BIT       TMR2CN0_T2XCLK0
      00000093H   SFRSYM    DATA     BYTE      DAC1CF0
      00000092H   SFRSYM    DATA     BYTE      DAC0CF1
      000000B9H   SFRSYM    DATA     BYTE      ADC0CF1
      000000C8H.1 SFRSYM    DATA     BIT       TMR2CN0_T2XCLK1
      000000C8H.3 SFRSYM    DATA     BIT       SCON1_TBX
      000000E8H.7 SFRSYM    DATA     BIT       ADC0CN0_ADEN
      00000089H   SFRSYM    DATA     BYTE      TMOD
      00000088H   SFRSYM    DATA     BYTE      TCON
      00000095H   SFRSYM    DATA     BYTE      DAC2CF0
      00000094H   SFRSYM    DATA     BYTE      DAC1CF1
      000000DFH   SFRSYM    DATA     BYTE      ADC0CF2
      0000009AH   SFRSYM    DATA     BYTE      DAC3CF0
      00000096H   SFRSYM    DATA     BYTE      DAC2CF1
      000000CFH   SFRSYM    DATA     BYTE      CRC0FLIP
      000000D0H   SFRSYM    DATA     BIT       PSW_PARITY
      000000A8H.4 SFRSYM    DATA     BIT       IE_ES0
      0000009CH   SFRSYM    DATA     BYTE      DAC3CF1
      0000009FH   SFRSYM    DATA     BYTE      CMP0MX
      00000098H   SFRSYM    DATA     BIT       TMR4CN0_T4XCLK0
      000000A8H.1 SFRSYM    DATA     BIT       IE_ET0
      000000AAH   SFRSYM    DATA     BYTE      CMP1MX
      00000098H.1 SFRSYM    DATA     BIT       TMR4CN0_T4XCLK1
      000000A8H.3 SFRSYM    DATA     BIT       IE_ET1
LX51 LINKER/LOCATER V4.66.30.0                                                        04/24/2017  21:26:22  PAGE 70


      000000D4H   SFRSYM    DATA     BYTE      P0SKIP
      000000D1H   SFRSYM    DATA     BYTE      CLOUT0
      000000D8H   SFRSYM    DATA     BIT       UART1FCN1_RIE
      000000C0H   SFRSYM    DATA     BIT       TMR5CN0_T5XCLK0
      000000A8H.5 SFRSYM    DATA     BIT       IE_ET2
      00000088H   SFRSYM    DATA     BIT       DACGCF0_D1SRC0
      000000D5H   SFRSYM    DATA     BYTE      P1SKIP
      000000C0H.1 SFRSYM    DATA     BIT       TMR5CN0_T5XCLK1
      00000088H.1 SFRSYM    DATA     BIT       DACGCF0_D1SRC1
      000000CCH   SFRSYM    DATA     BYTE      P2SKIP
      00000084H   SFRSYM    DATA     BYTE      CLU0MX
      000000E8H   SFRSYM    DATA     BYTE      ADC0CN0
      000000D8H.4 SFRSYM    DATA     BIT       UART1FCN1_TIE
      000000A8H   SFRSYM    DATA     BIT       IE_EX0
      00000088H.4 SFRSYM    DATA     BIT       DACGCF0_D3SRC0
      00000085H   SFRSYM    DATA     BYTE      CLU1MX
      000000B2H   SFRSYM    DATA     BYTE      ADC0CN1
      000000D8H.6 SFRSYM    DATA     BIT       PCA0CN0_CR
      000000A8H.2 SFRSYM    DATA     BIT       IE_EX1
      00000088H.5 SFRSYM    DATA     BIT       DACGCF0_D3SRC1
      00000091H   SFRSYM    DATA     BYTE      CLU2MX
      000000B3H   SFRSYM    DATA     BYTE      ADC0CN2
      000000C8H.7 SFRSYM    DATA     BIT       SCON1_OVR
      000000AAH   SFRSYM    DATA     BYTE      PSTAT0
      000000AEH   SFRSYM    DATA     BYTE      CLU3MX
      00000098H.7 SFRSYM    DATA     BIT       SCON0_SMODE
      000000B5H   SFRSYM    DATA     BYTE      DEVICEID
      000000A9H   SFRSYM    DATA     BYTE      CLKSEL
      000000F8H   SFRSYM    DATA     BIT       SPI0CN0_SPIEN
      00000085H   SFRSYM    DATA     BYTE      DAC0H
      000000F0H   SFRSYM    DATA     BYTE      B
      000000BEH   SFRSYM    DATA     BYTE      ADC0H
      000000FFH   SFRSYM    DATA     BYTE      I2C0ADM
      0000008AH   SFRSYM    DATA     BYTE      DAC1H
      00000088H.2 SFRSYM    DATA     BIT       DACGCF0_D1AMEN
      0000008CH   SFRSYM    DATA     BYTE      DAC2H
      0000008EH   SFRSYM    DATA     BYTE      DAC3H
      00000088H.6 SFRSYM    DATA     BIT       DACGCF0_D3AMEN
      000000CAH   SFRSYM    DATA     WORD      TMR2RL
      00000084H   SFRSYM    DATA     BYTE      DAC0L
      000000BDH   SFRSYM    DATA     BYTE      ADC0L
      00000092H   SFRSYM    DATA     WORD      TMR3RL
      00000089H   SFRSYM    DATA     BYTE      DAC1L
      000000A2H   SFRSYM    DATA     WORD      TMR4RL
      000000D8H   SFRSYM    DATA     BYTE      PCA0CN0
      0000008BH   SFRSYM    DATA     BYTE      DAC2L
      000000E0H   SFRSYM    DATA     BYTE      ACC
      000000D2H   SFRSYM    DATA     WORD      TMR5RL
      000000D9H   SFRSYM    DATA     BYTE      UART0PCF
      0000008DH   SFRSYM    DATA     BYTE      DAC3L
      000000FBH   SFRSYM    DATA     WORD      PCA0CP0
      000000DAH   SFRSYM    DATA     BYTE      UART1PCF
      000000E9H   SFRSYM    DATA     WORD      PCA0CP1
      00000088H   SFRSYM    DATA     BYTE      DACGCF0
      000000EBH   SFRSYM    DATA     WORD      PCA0CP2
      000000BCH   SFRSYM    DATA     BYTE      I2C0DIN
      00000098H   SFRSYM    DATA     BYTE      DACGCF1
      000000CEH   SFRSYM    DATA     BYTE      CRC0CN0
      000000F4H   SFRSYM    DATA     WORD      PCA0CP3
      0000008CH   SFRSYM    DATA     BYTE      TH0
      000000A2H   SFRSYM    DATA     BYTE      DACGCF2
      00000086H   SFRSYM    DATA     BYTE      CRC0CN1
LX51 LINKER/LOCATER V4.66.30.0                                                        04/24/2017  21:26:22  PAGE 71


      000000B8H.4 SFRSYM    DATA     BIT       IP_PS0
      00000084H   SFRSYM    DATA     WORD      PCA0CP4
      000000FAH   SFRSYM    DATA     BYTE      UART1FCT
      0000008DH   SFRSYM    DATA     BYTE      TH1
      000000FAH   SFRSYM    DATA     BYTE      PCA0H
      000000F5H   SFRSYM    DATA     BYTE      I2C0FCT
      000000B8H.1 SFRSYM    DATA     BIT       IP_PT0
      000000DDH   SFRSYM    DATA     WORD      PCA0CP5
      000000C7H   SFRSYM    DATA     BYTE      CLIE0
      000000B8H.3 SFRSYM    DATA     BIT       IP_PT1
      00000088H.3 SFRSYM    DATA     BIT       DACGCF0_D01REFSL
      000000B5H   SFRSYM    DATA     WORD      ADC0ASA
      000000E8H   SFRSYM    DATA     BYTE      CLIF0
      000000C0H.2 SFRSYM    DATA     BIT       SMB0CN0_ARBLOST
      000000B8H.5 SFRSYM    DATA     BIT       IP_PT2
      0000008AH   SFRSYM    DATA     BYTE      TL0
      000000D0H.5 SFRSYM    DATA     BIT       PSW_F0
      000000A8H.6 SFRSYM    DATA     BIT       IE_ESPI0
      0000008BH   SFRSYM    DATA     BYTE      TL1
      000000F9H   SFRSYM    DATA     BYTE      PCA0L
      000000C0H   SFRSYM    DATA     BIT       SMB0CN0_SI
      000000D0H.1 SFRSYM    DATA     BIT       PSW_F1
      00000080H   SFRSYM    DATA     BIT       P0_B0
      000000B8H   SFRSYM    DATA     BIT       IP_PX0
      00000090H   SFRSYM    DATA     BIT       P1_B0
      00000080H.1 SFRSYM    DATA     BIT       P0_B1
      000000B8H.2 SFRSYM    DATA     BIT       IP_PX1
      00000088H.7 SFRSYM    DATA     BIT       DACGCF0_D23REFSL
      0000009EH   SFRSYM    DATA     BYTE      UART1LIN
      0000009BH   SFRSYM    DATA     BYTE      CMP0CN0
      000000C6H   SFRSYM    DATA     BYTE      CLEN0
      00000088H.1 SFRSYM    DATA     BIT       TCON_IE0
      000000A0H   SFRSYM    DATA     BIT       P2_B0
      00000090H.1 SFRSYM    DATA     BIT       P1_B1
      00000080H.2 SFRSYM    DATA     BIT       P0_B2
      000000BFH   SFRSYM    DATA     BYTE      CMP1CN0
      00000099H   SFRSYM    DATA     BYTE      CMP0CN1
      00000088H.3 SFRSYM    DATA     BIT       TCON_IE1
      000000B0H   SFRSYM    DATA     BIT       P3_B0
      000000A0H.1 SFRSYM    DATA     BIT       P2_B1
      00000090H.2 SFRSYM    DATA     BIT       P1_B2
      00000080H.3 SFRSYM    DATA     BIT       P0_B3
      000000C0H   SFRSYM    DATA     BYTE      SMB0CN0
      000000ACH   SFRSYM    DATA     BYTE      CMP1CN1
      000000B0H.1 SFRSYM    DATA     BIT       P3_B1
      000000A0H.2 SFRSYM    DATA     BIT       P2_B2
      00000090H.3 SFRSYM    DATA     BIT       P1_B3
      00000080H.4 SFRSYM    DATA     BIT       P0_B4
      000000B0H.2 SFRSYM    DATA     BIT       P3_B2
      000000A0H.3 SFRSYM    DATA     BIT       P2_B3
      00000090H.4 SFRSYM    DATA     BIT       P1_B4
      00000080H.5 SFRSYM    DATA     BIT       P0_B5
      00000098H   SFRSYM    DATA     BIT       DACGCF1_D0UDIS
      000000D8H.1 SFRSYM    DATA     BIT       UART1FCN1_RXTO0
      000000B0H.3 SFRSYM    DATA     BIT       P3_B3
      000000A0H.4 SFRSYM    DATA     BIT       P2_B4
      00000090H.5 SFRSYM    DATA     BIT       P1_B5
      00000080H.6 SFRSYM    DATA     BIT       P0_B6
      00000098H.1 SFRSYM    DATA     BIT       DACGCF1_D1UDIS
      000000EEH   SFRSYM    DATA     BYTE      EIP1H
      000000D8H.2 SFRSYM    DATA     BIT       UART1FCN1_RXTO1
      000000B0H.4 SFRSYM    DATA     BIT       P3_B4
LX51 LINKER/LOCATER V4.66.30.0                                                        04/24/2017  21:26:22  PAGE 72


      000000A0H.5 SFRSYM    DATA     BIT       P2_B5
      00000090H.6 SFRSYM    DATA     BIT       P1_B6
      00000080H.7 SFRSYM    DATA     BIT       P0_B7
      00000098H.2 SFRSYM    DATA     BIT       DACGCF1_D2UDIS
      000000C5H   SFRSYM    DATA     BYTE      SMB0RXLN
      000000F6H   SFRSYM    DATA     BYTE      EIP2H
      000000A0H.6 SFRSYM    DATA     BIT       P2_B6
      00000090H.7 SFRSYM    DATA     BIT       P1_B7
      00000098H.3 SFRSYM    DATA     BIT       DACGCF1_D3UDIS
      000000B0H.7 SFRSYM    DATA     BIT       P3_B7
      00000083H   SFRSYM    DATA     BYTE      DPH
      000000C4H   SFRSYM    DATA     BYTE      ADC0GTH
      000000C8H.7 SFRSYM    DATA     BIT       TMR2CN0_TF2H
      000000C8H.3 SFRSYM    DATA     BIT       TMR2CN0_T2SPLIT
      000000D0H.6 SFRSYM    DATA     BIT       PSW_AC
      000000F8H   SFRSYM    DATA     BYTE      SPI0CN0
      000000C7H   SFRSYM    DATA     BYTE      HFO0CAL
      00000088H.5 SFRSYM    DATA     BIT       TCON_TF0
      00000098H   SFRSYM    DATA     BIT       SCON0_RI
      000000D6H   SFRSYM    DATA     BYTE      HFO1CAL
      00000082H   SFRSYM    DATA     BYTE      DPL
      00000088H.7 SFRSYM    DATA     BIT       TCON_TF1
      000000C8H   SFRSYM    DATA     BIT       SCON1_RI
      00000099H   SFRSYM    DATA     BYTE      SBUF0
      00000087H   SFRSYM    DATA     BYTE      PCON0
      000000F2H   SFRSYM    DATA     BYTE      IPH
      000000C3H   SFRSYM    DATA     BYTE      ADC0GTL
      00000098H.7 SFRSYM    DATA     BIT       TMR4CN0_TF4H
      00000098H.3 SFRSYM    DATA     BIT       TMR4CN0_T4SPLIT
      000000C8H.6 SFRSYM    DATA     BIT       TMR2CN0_TF2L
      00000098H.1 SFRSYM    DATA     BIT       SCON0_TI
      00000092H   SFRSYM    DATA     BYTE      SBUF1
      000000CDH   SFRSYM    DATA     BYTE      PCON1
      000000C6H   SFRSYM    DATA     BYTE      ADC0LTH
      00000088H   SFRSYM    DATA     BIT       TCON_IT0
      000000C8H.1 SFRSYM    DATA     BIT       SCON1_TI
      000000EFH   SFRSYM    DATA     BYTE      RSTSRC
      000000FDH   SFRSYM    DATA     BYTE      P0MAT
      000000CBH   SFRSYM    DATA     BYTE      CRC0DAT
      000000C0H.7 SFRSYM    DATA     BIT       TMR5CN0_TF5H
      000000C0H.3 SFRSYM    DATA     BIT       TMR5CN0_T5SPLIT
      00000088H.2 SFRSYM    DATA     BIT       TCON_IT1
      000000D7H   SFRSYM    DATA     BYTE      SFRSTACK
      00000098H   SFRSYM    DATA     BYTE      SCON0
      000000F6H   SFRSYM    DATA     BYTE      PRTDRV
      000000EDH   SFRSYM    DATA     BYTE      P1MAT
      000000E8H.3 SFRSYM    DATA     BIT       ADC0CN0_ADWINT
      00000093H   SFRSYM    DATA     BYTE      SMOD1
      000000C8H   SFRSYM    DATA     BYTE      SCON1
      000000FBH   SFRSYM    DATA     BYTE      P2MAT
      00000098H.6 SFRSYM    DATA     BIT       TMR4CN0_TF4L
      000000E8H.4 SFRSYM    DATA     BIT       ADC0CN0_ADBUSY
      000000D6H   SFRSYM    DATA     BYTE      SMB0ADM
      000000C5H   SFRSYM    DATA     BYTE      ADC0LTL
      000000F8H.5 SFRSYM    DATA     BIT       SPI0CN0_MODF
      000000B8H.6 SFRSYM    DATA     BIT       IP_PSPI0
      000000E8H.1 SFRSYM    DATA     BIT       ADC0CN0_ADGN0
      0000009CH   SFRSYM    DATA     BYTE      PCA0CLR
      000000C0H.6 SFRSYM    DATA     BIT       TMR5CN0_TF5L
      000000E8H.2 SFRSYM    DATA     BIT       ADC0CN0_ADGN1
      000000C8H   SFRSYM    DATA     BYTE      TMR2CN0
      00000091H   SFRSYM    DATA     BYTE      TMR3CN0
LX51 LINKER/LOCATER V4.66.30.0                                                        04/24/2017  21:26:22  PAGE 73


      000000FDH   SFRSYM    DATA     BYTE      TMR2CN1
      00000098H   SFRSYM    DATA     BYTE      TMR4CN0
      000000FEH   SFRSYM    DATA     BYTE      TMR3CN1
      000000C0H   SFRSYM    DATA     BYTE      TMR5CN0
      000000FFH   SFRSYM    DATA     BYTE      TMR4CN1
      000000D7H   SFRSYM    DATA     BYTE      SMB0ADR
      00000088H.4 SFRSYM    DATA     BIT       TCON_TR0
      000000F1H   SFRSYM    DATA     BYTE      TMR5CN1
      000000C8H.4 SFRSYM    DATA     BIT       TMR2CN0_TF2CEN
      00000088H.6 SFRSYM    DATA     BIT       TCON_TR1
      000000C2H   SFRSYM    DATA     BYTE      SMB0DAT
      000000CFH   SFRSYM    DATA     BYTE      TMR2H
      000000A1H   SFRSYM    DATA     BYTE      SPI0CFG
      00000095H   SFRSYM    DATA     BYTE      TMR3H
      000000EFH   SFRSYM    DATA     BYTE      HFOCN
      000000D3H   SFRSYM    DATA     BYTE      CRC0CNT
      000000A5H   SFRSYM    DATA     BYTE      TMR4H
      00000098H.4 SFRSYM    DATA     BIT       TMR4CN0_TF4CEN
      000000D5H   SFRSYM    DATA     BYTE      TMR5H
      000000EFH   SFRSYM    DATA     BYTE      SMB0FCT
      00000096H   SFRSYM    DATA     BYTE      PCA0POL
      000000CEH   SFRSYM    DATA     BYTE      TMR2L
      000000C0H.4 SFRSYM    DATA     BIT       TMR5CN0_TF5CEN
      000000F8H.7 SFRSYM    DATA     BIT       SPI0CN0_SPIF
      00000094H   SFRSYM    DATA     BYTE      TMR3L
      000000A8H.7 SFRSYM    DATA     BIT       IE_EA
      000000A4H   SFRSYM    DATA     BYTE      TMR4L
      000000D4H   SFRSYM    DATA     BYTE      TMR5L
      000000C8H.5 SFRSYM    DATA     BIT       TMR2CN0_TF2LEN
      000000F8H.6 SFRSYM    DATA     BIT       SPI0CN0_WCOL
      000000F8H.2 SFRSYM    DATA     BIT       SPI0CN0_NSSMD0
      000000D0H.7 SFRSYM    DATA     BIT       PSW_CY
      0000009DH   SFRSYM    DATA     BYTE      UART1FCN0
      000000DFH   SFRSYM    DATA     BYTE      SPI0PCF
      000000A3H   SFRSYM    DATA     BYTE      SPI0DAT
      000000ADH   SFRSYM    DATA     BYTE      I2C0FCN0
      000000F8H.3 SFRSYM    DATA     BIT       SPI0CN0_NSSMD1
      000000BDH   SFRSYM    DATA     WORD      ADC0
      000000D8H   SFRSYM    DATA     BYTE      UART1FCN1
      000000ABH   SFRSYM    DATA     BYTE      I2C0FCN1
      000000E8H   SFRSYM    DATA     BIT       CLIF0_C0FIF
      00000098H.5 SFRSYM    DATA     BIT       TMR4CN0_TF4LEN
      000000E8H.2 SFRSYM    DATA     BIT       CLIF0_C1FIF
      000000D0H   SFRSYM    DATA     BYTE      PSW
      000000F7H   SFRSYM    DATA     BYTE      PCA0PWM
      000000E8H.4 SFRSYM    DATA     BIT       CLIF0_C2FIF
      000000F7H   SFRSYM    DATA     BYTE      SPI0FCT
      000000B6H   SFRSYM    DATA     BYTE      REVID
      000000C0H.5 SFRSYM    DATA     BIT       TMR5CN0_TF5LEN
      000000E8H.6 SFRSYM    DATA     BIT       CLIF0_C3FIF
      000000B7H   SFRSYM    DATA     BYTE      FLKEY

      01001228H   BLOCK     CODE     ---       LVL=0
      01001228H   BLOCK     CODE     NEAR LAB  LVL=1
      00000027H   SYMBOL    DATA     BYTE      SFRPAGE_save
      ---         BLOCKEND  ---      ---       LVL=1
      01001228H   LINE      CODE     ---       #22
      01001228H   LINE      CODE     ---       #25
      0100122BH   LINE      CODE     ---       #26
      0100122EH   LINE      CODE     ---       #27
      01001231H   LINE      CODE     ---       #28
      01001234H   LINE      CODE     ---       #29
LX51 LINKER/LOCATER V4.66.30.0                                                        04/24/2017  21:26:22  PAGE 74


      01001237H   LINE      CODE     ---       #30
      0100123AH   LINE      CODE     ---       #31
      0100123DH   LINE      CODE     ---       #32
      01001240H   LINE      CODE     ---       #33
      01001243H   LINE      CODE     ---       #34
      01001246H   LINE      CODE     ---       #35
      01001249H   LINE      CODE     ---       #36
      0100124CH   LINE      CODE     ---       #37
      0100124FH   LINE      CODE     ---       #38
      01001252H   LINE      CODE     ---       #40
      01001255H   LINE      CODE     ---       #43
      ---         BLOCKEND  ---      ---       LVL=0

      010013C9H   BLOCK     CODE     ---       LVL=0
      010013C9H   LINE      CODE     ---       #48
      010013C9H   LINE      CODE     ---       #50
      010013CCH   LINE      CODE     ---       #52
      010013CFH   LINE      CODE     ---       #53
      010013D2H   LINE      CODE     ---       #56
      ---         BLOCKEND  ---      ---       LVL=0

      010013D3H   BLOCK     CODE     ---       LVL=0
      010013D3H   LINE      CODE     ---       #61
      010013D3H   LINE      CODE     ---       #76
      010013D6H   LINE      CODE     ---       #96
      010013D9H   LINE      CODE     ---       #119
      010013DCH   LINE      CODE     ---       #127
      ---         BLOCKEND  ---      ---       LVL=0

      010013DDH   BLOCK     CODE     ---       LVL=0
      010013DDH   LINE      CODE     ---       #132
      010013DDH   LINE      CODE     ---       #147
      010013E0H   LINE      CODE     ---       #164
      010013E3H   LINE      CODE     ---       #180
      010013E6H   LINE      CODE     ---       #192
      ---         BLOCKEND  ---      ---       LVL=0

      010013E7H   BLOCK     CODE     ---       LVL=0
      010013E7H   LINE      CODE     ---       #197
      010013E7H   LINE      CODE     ---       #211
      010013EAH   LINE      CODE     ---       #227
      010013EDH   LINE      CODE     ---       #228
      010013F0H   LINE      CODE     ---       #238
      ---         BLOCKEND  ---      ---       LVL=0

      010013F1H   BLOCK     CODE     ---       LVL=0
      010013F1H   LINE      CODE     ---       #243
      010013F1H   LINE      CODE     ---       #252
      010013F4H   LINE      CODE     ---       #253
      010013F7H   LINE      CODE     ---       #272
      010013FAH   LINE      CODE     ---       #280
      ---         BLOCKEND  ---      ---       LVL=0

      01001405H   BLOCK     CODE     ---       LVL=0
      01001405H   LINE      CODE     ---       #360
      01001405H   LINE      CODE     ---       #369
      01001408H   LINE      CODE     ---       #370
      0100140DH   LINE      CODE     ---       #374
      ---         BLOCKEND  ---      ---       LVL=0

      0100138EH   BLOCK     CODE     ---       LVL=0
      0100138EH   BLOCK     CODE     NEAR LAB  LVL=1
LX51 LINKER/LOCATER V4.66.30.0                                                        04/24/2017  21:26:22  PAGE 75


      00000007H   SYMBOL    DATA     BYTE      TCON_save
      ---         BLOCKEND  ---      ---       LVL=1
      0100138EH   LINE      CODE     ---       #379
      0100138EH   LINE      CODE     ---       #383
      01001390H   LINE      CODE     ---       #385
      01001393H   LINE      CODE     ---       #403
      0100139DH   LINE      CODE     ---       #407
      ---         BLOCKEND  ---      ---       LVL=0

      01001305H   BLOCK     CODE     ---       LVL=0
      01001305H   BLOCK     CODE     NEAR LAB  LVL=1
      00000007H   SYMBOL    DATA     BYTE      TMR3CN0_TR3_save
      ---         BLOCKEND  ---      ---       LVL=1
      01001305H   LINE      CODE     ---       #412
      01001305H   LINE      CODE     ---       #416
      01001309H   LINE      CODE     ---       #418
      0100130CH   LINE      CODE     ---       #431
      0100130FH   LINE      CODE     ---       #438
      01001312H   LINE      CODE     ---       #445
      01001315H   LINE      CODE     ---       #452
      01001318H   LINE      CODE     ---       #459
      0100131BH   LINE      CODE     ---       #464
      0100131DH   LINE      CODE     ---       #467
      ---         BLOCKEND  ---      ---       LVL=0

      010013FBH   BLOCK     CODE     ---       LVL=0
      010013FBH   LINE      CODE     ---       #472
      010013FBH   LINE      CODE     ---       #483
      010013FEH   LINE      CODE     ---       #501
      01001401H   LINE      CODE     ---       #511
      01001404H   LINE      CODE     ---       #514
      ---         BLOCKEND  ---      ---       LVL=0

      010013BCH   BLOCK     CODE     ---       LVL=0
      010013BCH   LINE      CODE     ---       #519
      010013BCH   LINE      CODE     ---       #524
      010013BFH   LINE      CODE     ---       #531
      010013C2H   LINE      CODE     ---       #542
      010013C5H   LINE      CODE     ---       #543
      010013C8H   LINE      CODE     ---       #552
      ---         BLOCKEND  ---      ---       LVL=0

      0100140EH   BLOCK     CODE     ---       LVL=0
      0100140EH   LINE      CODE     ---       #557
      0100140EH   LINE      CODE     ---       #569
      01001411H   LINE      CODE     ---       #600
      01001414H   LINE      CODE     ---       #611
      ---         BLOCKEND  ---      ---       LVL=0

      0100143DH   BLOCK     CODE     ---       LVL=0
      0100143DH   LINE      CODE     ---       #613
      0100143DH   LINE      CODE     ---       #621
      01001440H   LINE      CODE     ---       #625
      ---         BLOCKEND  ---      ---       LVL=0

      01001441H   BLOCK     CODE     ---       LVL=0
      01001441H   LINE      CODE     ---       #627
      01001441H   LINE      CODE     ---       #634
      01001444H   LINE      CODE     ---       #638
      ---         BLOCKEND  ---      ---       LVL=0

      ---         MODULE    ---      ---       INTERRUPTS
LX51 LINKER/LOCATER V4.66.30.0                                                        04/24/2017  21:26:22  PAGE 76


      000000A2H   SFRSYM    DATA     BYTE      SPI0CKR
      00000080H   SFRSYM    DATA     BYTE      P0
      000000C8H.6 SFRSYM    DATA     BIT       SCON1_PERR
      000000D0H.2 SFRSYM    DATA     BIT       PSW_OV
      00000086H   SFRSYM    DATA     BYTE      XOSC0CN
      00000090H   SFRSYM    DATA     BYTE      P1
      000000F8H.1 SFRSYM    DATA     BIT       SPI0CN0_TXNF
      00000097H   SFRSYM    DATA     BYTE      WDTCN
      000000A0H   SFRSYM    DATA     BYTE      P2
      000000B0H   SFRSYM    DATA     BYTE      P3
      000000C0H.7 SFRSYM    DATA     BIT       SMB0CN0_MASTER
      000000F9H   SFRSYM    DATA     WORD      PCA0
      000000E6H   SFRSYM    DATA     BYTE      EIE1
      000000C0H.1 SFRSYM    DATA     BIT       SMB0CN0_ACK
      000000E8H.1 SFRSYM    DATA     BIT       CLIF0_C0RIF
      000000F3H   SFRSYM    DATA     BYTE      EIE2
      000000E8H.3 SFRSYM    DATA     BIT       CLIF0_C1RIF
      000000E8H.5 SFRSYM    DATA     BIT       CLIF0_C2RIF
      0000008FH   SFRSYM    DATA     BYTE      PSCTL
      000000E8H.7 SFRSYM    DATA     BIT       CLIF0_C3RIF
      000000E4H   SFRSYM    DATA     BYTE      IT01CF
      000000C0H.6 SFRSYM    DATA     BIT       SMB0CN0_TXMODE
      000000ADH   SFRSYM    DATA     BYTE      DERIVID
      000000A7H   SFRSYM    DATA     BYTE      SFRPAGE
      000000A4H   SFRSYM    DATA     BYTE      P0MDOUT
      000000A5H   SFRSYM    DATA     BYTE      P1MDOUT
      000000E8H.5 SFRSYM    DATA     BIT       ADC0CN0_ADINT
      000000CBH   SFRSYM    DATA     BYTE      TMR2RLH
      000000A6H   SFRSYM    DATA     BYTE      P2MDOUT
      000000A8H   SFRSYM    DATA     BYTE      IE
      00000093H   SFRSYM    DATA     BYTE      TMR3RLH
      0000009CH   SFRSYM    DATA     BYTE      P3MDOUT
      000000A3H   SFRSYM    DATA     BYTE      TMR4RLH
      000000BBH   SFRSYM    DATA     BYTE      EIP1
      000000D3H   SFRSYM    DATA     BYTE      TMR5RLH
      000000EDH   SFRSYM    DATA     BYTE      EIP2
      00000090H.6 SFRSYM    DATA     BIT       LED_RED
      00000098H.2 SFRSYM    DATA     BIT       SCON0_RB8
      000000CAH   SFRSYM    DATA     BYTE      TMR2RLL
      000000FCH   SFRSYM    DATA     BYTE      PCA0CPH0
      00000092H   SFRSYM    DATA     BYTE      TMR3RLL
      000000EAH   SFRSYM    DATA     BYTE      PCA0CPH1
      00000098H.3 SFRSYM    DATA     BIT       SCON0_TB8
      000000F0H   SFRSYM    DATA     BIT       B_B0
      00000082H   SFRSYM    DATA     WORD      DP
      000000A2H   SFRSYM    DATA     BYTE      TMR4RLL
      000000ECH   SFRSYM    DATA     BYTE      PCA0CPH2
      000000F0H.1 SFRSYM    DATA     BIT       B_B1
      000000C3H   SFRSYM    DATA     WORD      ADC0GT
      000000D2H   SFRSYM    DATA     BYTE      TMR5RLL
      000000F5H   SFRSYM    DATA     BYTE      PCA0CPH3
      000000BDH   SFRSYM    DATA     BYTE      I2C0SLAD
      000000D8H.3 SFRSYM    DATA     BIT       UART1FCN1_RFRQ
      000000F0H.2 SFRSYM    DATA     BIT       B_B2
      000000BCH   SFRSYM    DATA     BYTE      SFRPGCN
      000000FBH   SFRSYM    DATA     BYTE      PCA0CPL0
      00000085H   SFRSYM    DATA     BYTE      PCA0CPH4
      000000F0H.3 SFRSYM    DATA     BIT       B_B3
      000000D9H   SFRSYM    DATA     BYTE      PCA0MD
      000000DAH   SFRSYM    DATA     BYTE      PCA0CPM0
      000000E9H   SFRSYM    DATA     BYTE      PCA0CPL1
      000000DEH   SFRSYM    DATA     BYTE      PCA0CPH5
LX51 LINKER/LOCATER V4.66.30.0                                                        04/24/2017  21:26:22  PAGE 77


      000000D8H.7 SFRSYM    DATA     BIT       UART1FCN1_TFRQ
      000000F0H.4 SFRSYM    DATA     BIT       B_B4
      000000DBH   SFRSYM    DATA     BYTE      PCA0CPM1
      000000EBH   SFRSYM    DATA     BYTE      PCA0CPL2
      000000A1H   SFRSYM    DATA     BYTE      ADC0ASCF
      000000B6H   SFRSYM    DATA     BYTE      ADC0ASAH
      000000F0H.5 SFRSYM    DATA     BIT       B_B5
      000000E8H.6 SFRSYM    DATA     BIT       ADC0CN0_IPOEN
      000000E8H   SFRSYM    DATA     BIT       ADC0CN0_TEMPE
      000000DCH   SFRSYM    DATA     BYTE      PCA0CPM2
      000000F4H   SFRSYM    DATA     BYTE      PCA0CPL3
      000000B8H   SFRSYM    DATA     BYTE      IP
      000000F0H.6 SFRSYM    DATA     BIT       B_B6
      000000C5H   SFRSYM    DATA     WORD      ADC0LT
      000000AEH   SFRSYM    DATA     BYTE      PCA0CPM3
      00000084H   SFRSYM    DATA     BYTE      PCA0CPL4
      000000D8H.6 SFRSYM    DATA     BIT       UART1FCN1_TXNF
      00000098H.5 SFRSYM    DATA     BIT       SCON0_MCE
      000000F0H.7 SFRSYM    DATA     BIT       B_B7
      000000AFH   SFRSYM    DATA     BYTE      PCA0CPM4
      000000DDH   SFRSYM    DATA     BYTE      PCA0CPL5
      000000C3H   SFRSYM    DATA     BYTE      SMB0FCN0
      000000CCH   SFRSYM    DATA     BYTE      PCA0CPM5
      000000B5H   SFRSYM    DATA     BYTE      ADC0ASAL
      000000E1H   SFRSYM    DATA     BYTE      XBR0
      000000C4H   SFRSYM    DATA     BYTE      SMB0FCN1
      000000C1H   SFRSYM    DATA     BYTE      SMB0CF
      000000E2H   SFRSYM    DATA     BYTE      XBR1
      000000C1H   SFRSYM    DATA     BYTE      PFE0CN
      000000E7H   SFRSYM    DATA     BYTE      EMI0CN
      000000C0H.5 SFRSYM    DATA     BIT       SMB0CN0_STA
      000000E3H   SFRSYM    DATA     BYTE      XBR2
      000000B1H   SFRSYM    DATA     BYTE      CLU0CF
      000000BBH   SFRSYM    DATA     BYTE      ADC0MX
      000000E0H   SFRSYM    DATA     BIT       ACC_ACC0
      000000D1H   SFRSYM    DATA     BYTE      REF0CN
      000000B3H   SFRSYM    DATA     BYTE      CLU1CF
      0000008EH   SFRSYM    DATA     BYTE      CKCON0
      000000E0H.1 SFRSYM    DATA     BIT       ACC_ACC1
      000000C9H   SFRSYM    DATA     BYTE      REG0CN
      000000CAH   SFRSYM    DATA     BYTE      CRC0IN
      000000B6H   SFRSYM    DATA     BYTE      CLU2CF
      000000A6H   SFRSYM    DATA     BYTE      CKCON1
      000000C8H.2 SFRSYM    DATA     BIT       TMR2CN0_TR2
      000000E0H.2 SFRSYM    DATA     BIT       ACC_ACC2
      000000BFH   SFRSYM    DATA     BYTE      CLU3CF
      000000E0H.3 SFRSYM    DATA     BIT       ACC_ACC3
      00000081H   SFRSYM    DATA     BYTE      SP
      0000009DH   SFRSYM    DATA     BYTE      CMP0MD
      000000E0H.4 SFRSYM    DATA     BIT       ACC_ACC4
      000000B1H   SFRSYM    DATA     BYTE      LFO0CN
      000000ABH   SFRSYM    DATA     BYTE      CMP1MD
      000000D8H   SFRSYM    DATA     BIT       PCA0CN0_CCF0
      000000E0H.5 SFRSYM    DATA     BIT       ACC_ACC5
      00000098H.2 SFRSYM    DATA     BIT       TMR4CN0_TR4
      000000D8H.1 SFRSYM    DATA     BIT       PCA0CN0_CCF1
      000000E0H.6 SFRSYM    DATA     BIT       ACC_ACC6
      000000CEH   SFRSYM    DATA     WORD      TMR2
      0000009AH   SFRSYM    DATA     BYTE      SPI0FCN0
      000000C7H   SFRSYM    DATA     BYTE      ADC0ASCT
      000000D8H.2 SFRSYM    DATA     BIT       PCA0CN0_CCF2
      000000E0H.7 SFRSYM    DATA     BIT       ACC_ACC7
LX51 LINKER/LOCATER V4.66.30.0                                                        04/24/2017  21:26:22  PAGE 78


      00000094H   SFRSYM    DATA     WORD      TMR3
      0000009BH   SFRSYM    DATA     BYTE      SPI0FCN1
      000000C0H.2 SFRSYM    DATA     BIT       TMR5CN0_TR5
      000000D8H.3 SFRSYM    DATA     BIT       PCA0CN0_CCF3
      000000A4H   SFRSYM    DATA     WORD      TMR4
      00000094H   SFRSYM    DATA     BYTE      SBCON1
      00000090H.4 SFRSYM    DATA     BIT       LED_GREEN
      000000D8H.4 SFRSYM    DATA     BIT       PCA0CN0_CCF4
      000000D4H   SFRSYM    DATA     WORD      TMR5
      000000C0H.3 SFRSYM    DATA     BIT       SMB0CN0_ACKRQ
      000000D8H.5 SFRSYM    DATA     BIT       PCA0CN0_CCF5
      000000FFH   SFRSYM    DATA     BYTE      VDM0CN
      000000F1H   SFRSYM    DATA     BYTE      P0MDIN
      000000AFH   SFRSYM    DATA     BYTE      CLU0FN
      00000098H.4 SFRSYM    DATA     BIT       SCON0_REN
      000000ACH   SFRSYM    DATA     BYTE      SMB0TC
      000000F2H   SFRSYM    DATA     BYTE      P1MDIN
      000000B2H   SFRSYM    DATA     BYTE      CLU1FN
      000000C8H.4 SFRSYM    DATA     BIT       SCON1_REN
      000000F3H   SFRSYM    DATA     BYTE      P2MDIN
      000000B5H   SFRSYM    DATA     BYTE      CLU2FN
      000000C0H.4 SFRSYM    DATA     BIT       SMB0CN0_STO
      000000F4H   SFRSYM    DATA     BYTE      P3MDIN
      000000B9H   SFRSYM    DATA     BYTE      I2C0STAT
      000000BBH   SFRSYM    DATA     BYTE      I2C0DOUT
      000000BEH   SFRSYM    DATA     BYTE      CLU3FN
      00000096H   SFRSYM    DATA     BYTE      SBRLH1
      000000FEH   SFRSYM    DATA     BYTE      P0MASK
      000000D8H.5 SFRSYM    DATA     BIT       UART1FCN1_TXHOLD
      000000EEH   SFRSYM    DATA     BYTE      P1MASK
      000000FCH   SFRSYM    DATA     BYTE      P2MASK
      000000D0H.3 SFRSYM    DATA     BIT       PSW_RS0
      000000D8H.7 SFRSYM    DATA     BIT       PCA0CN0_CF
      0000009EH   SFRSYM    DATA     BYTE      PCA0CENT
      000000BAH   SFRSYM    DATA     BYTE      I2C0CN0
      000000D2H   SFRSYM    DATA     BYTE      CRC0ST
      000000F8H.4 SFRSYM    DATA     BIT       SPI0CN0_RXOVRN
      000000D0H.4 SFRSYM    DATA     BIT       PSW_RS1
      00000095H   SFRSYM    DATA     BYTE      SBRLL1
      000000C8H.2 SFRSYM    DATA     BIT       SCON1_RBX
      00000091H   SFRSYM    DATA     BYTE      DAC0CF0
      000000BCH   SFRSYM    DATA     BYTE      ADC0CF0
      000000C8H   SFRSYM    DATA     BIT       TMR2CN0_T2XCLK0
      00000093H   SFRSYM    DATA     BYTE      DAC1CF0
      00000092H   SFRSYM    DATA     BYTE      DAC0CF1
      000000B9H   SFRSYM    DATA     BYTE      ADC0CF1
      000000C8H.1 SFRSYM    DATA     BIT       TMR2CN0_T2XCLK1
      000000C8H.3 SFRSYM    DATA     BIT       SCON1_TBX
      000000E8H.7 SFRSYM    DATA     BIT       ADC0CN0_ADEN
      00000089H   SFRSYM    DATA     BYTE      TMOD
      00000088H   SFRSYM    DATA     BYTE      TCON
      00000095H   SFRSYM    DATA     BYTE      DAC2CF0
      00000094H   SFRSYM    DATA     BYTE      DAC1CF1
      000000DFH   SFRSYM    DATA     BYTE      ADC0CF2
      0000009AH   SFRSYM    DATA     BYTE      DAC3CF0
      00000096H   SFRSYM    DATA     BYTE      DAC2CF1
      000000CFH   SFRSYM    DATA     BYTE      CRC0FLIP
      000000D0H   SFRSYM    DATA     BIT       PSW_PARITY
      000000A8H.4 SFRSYM    DATA     BIT       IE_ES0
      0000009CH   SFRSYM    DATA     BYTE      DAC3CF1
      0000009FH   SFRSYM    DATA     BYTE      CMP0MX
      00000098H   SFRSYM    DATA     BIT       TMR4CN0_T4XCLK0
LX51 LINKER/LOCATER V4.66.30.0                                                        04/24/2017  21:26:22  PAGE 79


      000000A8H.1 SFRSYM    DATA     BIT       IE_ET0
      000000AAH   SFRSYM    DATA     BYTE      CMP1MX
      00000098H.1 SFRSYM    DATA     BIT       TMR4CN0_T4XCLK1
      000000A8H.3 SFRSYM    DATA     BIT       IE_ET1
      000000D4H   SFRSYM    DATA     BYTE      P0SKIP
      000000D1H   SFRSYM    DATA     BYTE      CLOUT0
      000000D8H   SFRSYM    DATA     BIT       UART1FCN1_RIE
      000000C0H   SFRSYM    DATA     BIT       TMR5CN0_T5XCLK0
      000000A8H.5 SFRSYM    DATA     BIT       IE_ET2
      00000088H   SFRSYM    DATA     BIT       DACGCF0_D1SRC0
      000000D5H   SFRSYM    DATA     BYTE      P1SKIP
      000000C0H.1 SFRSYM    DATA     BIT       TMR5CN0_T5XCLK1
      00000088H.1 SFRSYM    DATA     BIT       DACGCF0_D1SRC1
      000000CCH   SFRSYM    DATA     BYTE      P2SKIP
      00000084H   SFRSYM    DATA     BYTE      CLU0MX
      000000E8H   SFRSYM    DATA     BYTE      ADC0CN0
      000000D8H.4 SFRSYM    DATA     BIT       UART1FCN1_TIE
      000000A8H   SFRSYM    DATA     BIT       IE_EX0
      00000088H.4 SFRSYM    DATA     BIT       DACGCF0_D3SRC0
      00000085H   SFRSYM    DATA     BYTE      CLU1MX
      000000B2H   SFRSYM    DATA     BYTE      ADC0CN1
      000000D8H.6 SFRSYM    DATA     BIT       PCA0CN0_CR
      000000A8H.2 SFRSYM    DATA     BIT       IE_EX1
      00000088H.5 SFRSYM    DATA     BIT       DACGCF0_D3SRC1
      00000091H   SFRSYM    DATA     BYTE      CLU2MX
      000000B3H   SFRSYM    DATA     BYTE      ADC0CN2
      000000C8H.7 SFRSYM    DATA     BIT       SCON1_OVR
      000000AAH   SFRSYM    DATA     BYTE      PSTAT0
      000000AEH   SFRSYM    DATA     BYTE      CLU3MX
      00000098H.7 SFRSYM    DATA     BIT       SCON0_SMODE
      000000B5H   SFRSYM    DATA     BYTE      DEVICEID
      000000A9H   SFRSYM    DATA     BYTE      CLKSEL
      000000F8H   SFRSYM    DATA     BIT       SPI0CN0_SPIEN
      00000085H   SFRSYM    DATA     BYTE      DAC0H
      000000F0H   SFRSYM    DATA     BYTE      B
      000000BEH   SFRSYM    DATA     BYTE      ADC0H
      000000FFH   SFRSYM    DATA     BYTE      I2C0ADM
      0000008AH   SFRSYM    DATA     BYTE      DAC1H
      00000088H.2 SFRSYM    DATA     BIT       DACGCF0_D1AMEN
      0000008CH   SFRSYM    DATA     BYTE      DAC2H
      0000008EH   SFRSYM    DATA     BYTE      DAC3H
      00000088H.6 SFRSYM    DATA     BIT       DACGCF0_D3AMEN
      000000CAH   SFRSYM    DATA     WORD      TMR2RL
      00000084H   SFRSYM    DATA     BYTE      DAC0L
      000000BDH   SFRSYM    DATA     BYTE      ADC0L
      00000092H   SFRSYM    DATA     WORD      TMR3RL
      00000089H   SFRSYM    DATA     BYTE      DAC1L
      000000A2H   SFRSYM    DATA     WORD      TMR4RL
      000000D8H   SFRSYM    DATA     BYTE      PCA0CN0
      0000008BH   SFRSYM    DATA     BYTE      DAC2L
      000000E0H   SFRSYM    DATA     BYTE      ACC
      000000D2H   SFRSYM    DATA     WORD      TMR5RL
      000000D9H   SFRSYM    DATA     BYTE      UART0PCF
      0000008DH   SFRSYM    DATA     BYTE      DAC3L
      000000FBH   SFRSYM    DATA     WORD      PCA0CP0
      000000DAH   SFRSYM    DATA     BYTE      UART1PCF
      000000E9H   SFRSYM    DATA     WORD      PCA0CP1
      00000088H   SFRSYM    DATA     BYTE      DACGCF0
      000000EBH   SFRSYM    DATA     WORD      PCA0CP2
      000000BCH   SFRSYM    DATA     BYTE      I2C0DIN
      00000098H   SFRSYM    DATA     BYTE      DACGCF1
      000000CEH   SFRSYM    DATA     BYTE      CRC0CN0
LX51 LINKER/LOCATER V4.66.30.0                                                        04/24/2017  21:26:22  PAGE 80


      000000F4H   SFRSYM    DATA     WORD      PCA0CP3
      0000008CH   SFRSYM    DATA     BYTE      TH0
      000000A2H   SFRSYM    DATA     BYTE      DACGCF2
      00000086H   SFRSYM    DATA     BYTE      CRC0CN1
      000000B8H.4 SFRSYM    DATA     BIT       IP_PS0
      00000084H   SFRSYM    DATA     WORD      PCA0CP4
      000000FAH   SFRSYM    DATA     BYTE      UART1FCT
      0000008DH   SFRSYM    DATA     BYTE      TH1
      000000FAH   SFRSYM    DATA     BYTE      PCA0H
      000000F5H   SFRSYM    DATA     BYTE      I2C0FCT
      000000B8H.1 SFRSYM    DATA     BIT       IP_PT0
      000000DDH   SFRSYM    DATA     WORD      PCA0CP5
      000000C7H   SFRSYM    DATA     BYTE      CLIE0
      000000B8H.3 SFRSYM    DATA     BIT       IP_PT1
      00000088H.3 SFRSYM    DATA     BIT       DACGCF0_D01REFSL
      000000B5H   SFRSYM    DATA     WORD      ADC0ASA
      000000E8H   SFRSYM    DATA     BYTE      CLIF0
      000000C0H.2 SFRSYM    DATA     BIT       SMB0CN0_ARBLOST
      000000B8H.5 SFRSYM    DATA     BIT       IP_PT2
      0000008AH   SFRSYM    DATA     BYTE      TL0
      000000D0H.5 SFRSYM    DATA     BIT       PSW_F0
      000000A8H.6 SFRSYM    DATA     BIT       IE_ESPI0
      0000008BH   SFRSYM    DATA     BYTE      TL1
      000000F9H   SFRSYM    DATA     BYTE      PCA0L
      000000C0H   SFRSYM    DATA     BIT       SMB0CN0_SI
      000000D0H.1 SFRSYM    DATA     BIT       PSW_F1
      00000080H   SFRSYM    DATA     BIT       P0_B0
      000000B8H   SFRSYM    DATA     BIT       IP_PX0
      00000090H   SFRSYM    DATA     BIT       P1_B0
      00000080H.1 SFRSYM    DATA     BIT       P0_B1
      000000B8H.2 SFRSYM    DATA     BIT       IP_PX1
      00000088H.7 SFRSYM    DATA     BIT       DACGCF0_D23REFSL
      0000009EH   SFRSYM    DATA     BYTE      UART1LIN
      0000009BH   SFRSYM    DATA     BYTE      CMP0CN0
      000000C6H   SFRSYM    DATA     BYTE      CLEN0
      00000088H.1 SFRSYM    DATA     BIT       TCON_IE0
      000000A0H   SFRSYM    DATA     BIT       P2_B0
      00000090H.1 SFRSYM    DATA     BIT       P1_B1
      00000080H.2 SFRSYM    DATA     BIT       P0_B2
      000000BFH   SFRSYM    DATA     BYTE      CMP1CN0
      00000099H   SFRSYM    DATA     BYTE      CMP0CN1
      00000088H.3 SFRSYM    DATA     BIT       TCON_IE1
      000000B0H   SFRSYM    DATA     BIT       P3_B0
      000000A0H.1 SFRSYM    DATA     BIT       P2_B1
      00000090H.2 SFRSYM    DATA     BIT       P1_B2
      00000080H.3 SFRSYM    DATA     BIT       P0_B3
      000000C0H   SFRSYM    DATA     BYTE      SMB0CN0
      000000ACH   SFRSYM    DATA     BYTE      CMP1CN1
      000000B0H.1 SFRSYM    DATA     BIT       P3_B1
      000000A0H.2 SFRSYM    DATA     BIT       P2_B2
      00000090H.3 SFRSYM    DATA     BIT       P1_B3
      00000080H.4 SFRSYM    DATA     BIT       P0_B4
      000000B0H.2 SFRSYM    DATA     BIT       P3_B2
      000000A0H.3 SFRSYM    DATA     BIT       P2_B3
      00000090H.4 SFRSYM    DATA     BIT       P1_B4
      00000080H.5 SFRSYM    DATA     BIT       P0_B5
      00000098H   SFRSYM    DATA     BIT       DACGCF1_D0UDIS
      000000D8H.1 SFRSYM    DATA     BIT       UART1FCN1_RXTO0
      000000B0H.3 SFRSYM    DATA     BIT       P3_B3
      000000A0H.4 SFRSYM    DATA     BIT       P2_B4
      00000090H.5 SFRSYM    DATA     BIT       P1_B5
      00000080H.6 SFRSYM    DATA     BIT       P0_B6
LX51 LINKER/LOCATER V4.66.30.0                                                        04/24/2017  21:26:22  PAGE 81


      00000098H.1 SFRSYM    DATA     BIT       DACGCF1_D1UDIS
      000000EEH   SFRSYM    DATA     BYTE      EIP1H
      000000D8H.2 SFRSYM    DATA     BIT       UART1FCN1_RXTO1
      000000B0H.4 SFRSYM    DATA     BIT       P3_B4
      000000A0H.5 SFRSYM    DATA     BIT       P2_B5
      00000090H.6 SFRSYM    DATA     BIT       P1_B6
      00000080H.7 SFRSYM    DATA     BIT       P0_B7
      00000098H.2 SFRSYM    DATA     BIT       DACGCF1_D2UDIS
      000000C5H   SFRSYM    DATA     BYTE      SMB0RXLN
      000000F6H   SFRSYM    DATA     BYTE      EIP2H
      000000A0H.6 SFRSYM    DATA     BIT       P2_B6
      00000090H.7 SFRSYM    DATA     BIT       P1_B7
      00000098H.3 SFRSYM    DATA     BIT       DACGCF1_D3UDIS
      000000B0H.7 SFRSYM    DATA     BIT       P3_B7
      00000083H   SFRSYM    DATA     BYTE      DPH
      000000C4H   SFRSYM    DATA     BYTE      ADC0GTH
      000000C8H.7 SFRSYM    DATA     BIT       TMR2CN0_TF2H
      000000C8H.3 SFRSYM    DATA     BIT       TMR2CN0_T2SPLIT
      00000090H.5 SFRSYM    DATA     BIT       LED_BLUE
      000000D0H.6 SFRSYM    DATA     BIT       PSW_AC
      000000F8H   SFRSYM    DATA     BYTE      SPI0CN0
      000000C7H   SFRSYM    DATA     BYTE      HFO0CAL
      00000088H.5 SFRSYM    DATA     BIT       TCON_TF0
      00000098H   SFRSYM    DATA     BIT       SCON0_RI
      000000D6H   SFRSYM    DATA     BYTE      HFO1CAL
      00000082H   SFRSYM    DATA     BYTE      DPL
      00000088H.7 SFRSYM    DATA     BIT       TCON_TF1
      000000C8H   SFRSYM    DATA     BIT       SCON1_RI
      00000099H   SFRSYM    DATA     BYTE      SBUF0
      00000087H   SFRSYM    DATA     BYTE      PCON0
      000000F2H   SFRSYM    DATA     BYTE      IPH
      000000C3H   SFRSYM    DATA     BYTE      ADC0GTL
      00000098H.7 SFRSYM    DATA     BIT       TMR4CN0_TF4H
      00000098H.3 SFRSYM    DATA     BIT       TMR4CN0_T4SPLIT
      000000C8H.6 SFRSYM    DATA     BIT       TMR2CN0_TF2L
      00000098H.1 SFRSYM    DATA     BIT       SCON0_TI
      00000092H   SFRSYM    DATA     BYTE      SBUF1
      000000CDH   SFRSYM    DATA     BYTE      PCON1
      000000C6H   SFRSYM    DATA     BYTE      ADC0LTH
      00000088H   SFRSYM    DATA     BIT       TCON_IT0
      000000C8H.1 SFRSYM    DATA     BIT       SCON1_TI
      000000EFH   SFRSYM    DATA     BYTE      RSTSRC
      000000FDH   SFRSYM    DATA     BYTE      P0MAT
      000000CBH   SFRSYM    DATA     BYTE      CRC0DAT
      000000C0H.7 SFRSYM    DATA     BIT       TMR5CN0_TF5H
      000000C0H.3 SFRSYM    DATA     BIT       TMR5CN0_T5SPLIT
      00000088H.2 SFRSYM    DATA     BIT       TCON_IT1
      000000D7H   SFRSYM    DATA     BYTE      SFRSTACK
      00000098H   SFRSYM    DATA     BYTE      SCON0
      000000F6H   SFRSYM    DATA     BYTE      PRTDRV
      000000EDH   SFRSYM    DATA     BYTE      P1MAT
      000000E8H.3 SFRSYM    DATA     BIT       ADC0CN0_ADWINT
      00000093H   SFRSYM    DATA     BYTE      SMOD1
      000000C8H   SFRSYM    DATA     BYTE      SCON1
      000000FBH   SFRSYM    DATA     BYTE      P2MAT
      00000098H.6 SFRSYM    DATA     BIT       TMR4CN0_TF4L
      000000E8H.4 SFRSYM    DATA     BIT       ADC0CN0_ADBUSY
      000000D6H   SFRSYM    DATA     BYTE      SMB0ADM
      000000C5H   SFRSYM    DATA     BYTE      ADC0LTL
      000000F8H.5 SFRSYM    DATA     BIT       SPI0CN0_MODF
      000000B8H.6 SFRSYM    DATA     BIT       IP_PSPI0
      000000E8H.1 SFRSYM    DATA     BIT       ADC0CN0_ADGN0
LX51 LINKER/LOCATER V4.66.30.0                                                        04/24/2017  21:26:22  PAGE 82


      0000009CH   SFRSYM    DATA     BYTE      PCA0CLR
      000000C0H.6 SFRSYM    DATA     BIT       TMR5CN0_TF5L
      000000E8H.2 SFRSYM    DATA     BIT       ADC0CN0_ADGN1
      000000C8H   SFRSYM    DATA     BYTE      TMR2CN0
      00000091H   SFRSYM    DATA     BYTE      TMR3CN0
      000000FDH   SFRSYM    DATA     BYTE      TMR2CN1
      00000098H   SFRSYM    DATA     BYTE      TMR4CN0
      000000FEH   SFRSYM    DATA     BYTE      TMR3CN1
      000000C0H   SFRSYM    DATA     BYTE      TMR5CN0
      000000FFH   SFRSYM    DATA     BYTE      TMR4CN1
      000000D7H   SFRSYM    DATA     BYTE      SMB0ADR
      00000088H.4 SFRSYM    DATA     BIT       TCON_TR0
      000000F1H   SFRSYM    DATA     BYTE      TMR5CN1
      000000C8H.4 SFRSYM    DATA     BIT       TMR2CN0_TF2CEN
      00000088H.6 SFRSYM    DATA     BIT       TCON_TR1
      000000C2H   SFRSYM    DATA     BYTE      SMB0DAT
      000000CFH   SFRSYM    DATA     BYTE      TMR2H
      000000A1H   SFRSYM    DATA     BYTE      SPI0CFG
      00000095H   SFRSYM    DATA     BYTE      TMR3H
      000000EFH   SFRSYM    DATA     BYTE      HFOCN
      000000D3H   SFRSYM    DATA     BYTE      CRC0CNT
      000000A5H   SFRSYM    DATA     BYTE      TMR4H
      00000098H.4 SFRSYM    DATA     BIT       TMR4CN0_TF4CEN
      000000D5H   SFRSYM    DATA     BYTE      TMR5H
      000000EFH   SFRSYM    DATA     BYTE      SMB0FCT
      00000096H   SFRSYM    DATA     BYTE      PCA0POL
      000000CEH   SFRSYM    DATA     BYTE      TMR2L
      000000C0H.4 SFRSYM    DATA     BIT       TMR5CN0_TF5CEN
      000000F8H.7 SFRSYM    DATA     BIT       SPI0CN0_SPIF
      00000094H   SFRSYM    DATA     BYTE      TMR3L
      000000A8H.7 SFRSYM    DATA     BIT       IE_EA
      000000A4H   SFRSYM    DATA     BYTE      TMR4L
      000000D4H   SFRSYM    DATA     BYTE      TMR5L
      000000C8H.5 SFRSYM    DATA     BIT       TMR2CN0_TF2LEN
      000000F8H.6 SFRSYM    DATA     BIT       SPI0CN0_WCOL
      000000F8H.2 SFRSYM    DATA     BIT       SPI0CN0_NSSMD0
      000000D0H.7 SFRSYM    DATA     BIT       PSW_CY
      0000009DH   SFRSYM    DATA     BYTE      UART1FCN0
      000000DFH   SFRSYM    DATA     BYTE      SPI0PCF
      000000A3H   SFRSYM    DATA     BYTE      SPI0DAT
      000000ADH   SFRSYM    DATA     BYTE      I2C0FCN0
      000000F8H.3 SFRSYM    DATA     BIT       SPI0CN0_NSSMD1
      000000BDH   SFRSYM    DATA     WORD      ADC0
      000000D8H   SFRSYM    DATA     BYTE      UART1FCN1
      000000ABH   SFRSYM    DATA     BYTE      I2C0FCN1
      000000E8H   SFRSYM    DATA     BIT       CLIF0_C0FIF
      00000098H.5 SFRSYM    DATA     BIT       TMR4CN0_TF4LEN
      000000E8H.2 SFRSYM    DATA     BIT       CLIF0_C1FIF
      000000D0H   SFRSYM    DATA     BYTE      PSW
      000000F7H   SFRSYM    DATA     BYTE      PCA0PWM
      000000E8H.4 SFRSYM    DATA     BIT       CLIF0_C2FIF
      000000F7H   SFRSYM    DATA     BYTE      SPI0FCT
      000000B6H   SFRSYM    DATA     BYTE      REVID
      000000C0H.5 SFRSYM    DATA     BIT       TMR5CN0_TF5LEN
      000000E8H.6 SFRSYM    DATA     BIT       CLIF0_C3FIF
      000000B7H   SFRSYM    DATA     BYTE      FLKEY

      ---         MODULE    ---      ---       ?C_STARTUP
      01000000H   PUBLIC    CODE     NEAR LAB  ?C_STARTUP
      000000E0H   SFRSYM    DATA     BYTE      ACC
      000000F0H   SFRSYM    DATA     BYTE      B
      00000083H   SFRSYM    DATA     BYTE      DPH
LX51 LINKER/LOCATER V4.66.30.0                                                        04/24/2017  21:26:22  PAGE 83


      00000082H   SFRSYM    DATA     BYTE      DPL
      000000A0H   SFRSYM    DATA     BYTE      PPAGE_SFR
      00000081H   SFRSYM    DATA     BYTE      SP
      00000000H   SYMBOL    NUMBER   ---       IBPSTACK
      00000100H   SYMBOL    NUMBER   ---       IBPSTACKTOP
      00000080H   SYMBOL    NUMBER   ---       IDATALEN
      01000EA1H   SYMBOL    CODE     NEAR LAB  IDATALOOP
      00000000H   SYMBOL    NUMBER   ---       PBPSTACK
      00000100H   SYMBOL    NUMBER   ---       PBPSTACKTOP
      00000000H   SYMBOL    NUMBER   ---       PDATALEN
      00000000H   SYMBOL    NUMBER   ---       PDATASTART
      00000000H   SYMBOL    NUMBER   ---       PPAGE
      00000000H   SYMBOL    NUMBER   ---       PPAGEENABLE
      01000E9EH   SYMBOL    CODE     NEAR LAB  STARTUP1
      00000000H   SYMBOL    NUMBER   ---       XBPSTACK
      00010000H   SYMBOL    NUMBER   ---       XBPSTACKTOP
      00000000H   SYMBOL    NUMBER   ---       XDATALEN
      00000000H   SYMBOL    NUMBER   ---       XDATASTART

      01000000H   BLOCK     CODE     NEAR LAB  LVL=0
      01000000H   LINE      CODE     ---       #126
      ---         BLOCKEND  ---      ---       LVL=0

      01000E9EH   BLOCK     CODE     NEAR LAB  LVL=0
      01000E9EH   LINE      CODE     ---       #138
      01000EA0H   LINE      CODE     ---       #139
      01000EA1H   LINE      CODE     ---       #140
      01000EA2H   LINE      CODE     ---       #141
      01000EA4H   LINE      CODE     ---       #190
      01000EA7H   LINE      CODE     ---       #201
      ---         BLOCKEND  ---      ---       LVL=0

      ---         MODULE    ---      ---       ADC
      00000057H   PUBLIC    DATA     DWORD     mV
      01000CC7H   PUBLIC    CODE     ---       ADC0EOC_ISR
      000000A2H   SFRSYM    DATA     BYTE      SPI0CKR
      00000080H   SFRSYM    DATA     BYTE      P0
      000000C8H.6 SFRSYM    DATA     BIT       SCON1_PERR
      000000D0H.2 SFRSYM    DATA     BIT       PSW_OV
      00000086H   SFRSYM    DATA     BYTE      XOSC0CN
      00000090H   SFRSYM    DATA     BYTE      P1
      000000F8H.1 SFRSYM    DATA     BIT       SPI0CN0_TXNF
      00000097H   SFRSYM    DATA     BYTE      WDTCN
      000000A0H   SFRSYM    DATA     BYTE      P2
      000000B0H   SFRSYM    DATA     BYTE      P3
      000000C0H.7 SFRSYM    DATA     BIT       SMB0CN0_MASTER
      000000F9H   SFRSYM    DATA     WORD      PCA0
      000000E6H   SFRSYM    DATA     BYTE      EIE1
      000000C0H.1 SFRSYM    DATA     BIT       SMB0CN0_ACK
      000000E8H.1 SFRSYM    DATA     BIT       CLIF0_C0RIF
      000000F3H   SFRSYM    DATA     BYTE      EIE2
      000000E8H.3 SFRSYM    DATA     BIT       CLIF0_C1RIF
      000000E8H.5 SFRSYM    DATA     BIT       CLIF0_C2RIF
      0000008FH   SFRSYM    DATA     BYTE      PSCTL
      00000080H.2 SFRSYM    DATA     BIT       BSP_PB0
      000000E8H.7 SFRSYM    DATA     BIT       CLIF0_C3RIF
      000000E4H   SFRSYM    DATA     BYTE      IT01CF
      00000080H.3 SFRSYM    DATA     BIT       BSP_PB1
      000000C0H.6 SFRSYM    DATA     BIT       SMB0CN0_TXMODE
      000000ADH   SFRSYM    DATA     BYTE      DERIVID
      000000A7H   SFRSYM    DATA     BYTE      SFRPAGE
      000000A4H   SFRSYM    DATA     BYTE      P0MDOUT
LX51 LINKER/LOCATER V4.66.30.0                                                        04/24/2017  21:26:22  PAGE 84


      000000A5H   SFRSYM    DATA     BYTE      P1MDOUT
      000000E8H.5 SFRSYM    DATA     BIT       ADC0CN0_ADINT
      000000CBH   SFRSYM    DATA     BYTE      TMR2RLH
      000000A6H   SFRSYM    DATA     BYTE      P2MDOUT
      000000A8H   SFRSYM    DATA     BYTE      IE
      00000093H   SFRSYM    DATA     BYTE      TMR3RLH
      0000009CH   SFRSYM    DATA     BYTE      P3MDOUT
      000000A3H   SFRSYM    DATA     BYTE      TMR4RLH
      000000BBH   SFRSYM    DATA     BYTE      EIP1
      000000D3H   SFRSYM    DATA     BYTE      TMR5RLH
      000000EDH   SFRSYM    DATA     BYTE      EIP2
      00000098H.2 SFRSYM    DATA     BIT       SCON0_RB8
      000000CAH   SFRSYM    DATA     BYTE      TMR2RLL
      000000FCH   SFRSYM    DATA     BYTE      PCA0CPH0
      00000092H   SFRSYM    DATA     BYTE      TMR3RLL
      000000EAH   SFRSYM    DATA     BYTE      PCA0CPH1
      00000098H.3 SFRSYM    DATA     BIT       SCON0_TB8
      000000F0H   SFRSYM    DATA     BIT       B_B0
      00000082H   SFRSYM    DATA     WORD      DP
      000000A2H   SFRSYM    DATA     BYTE      TMR4RLL
      000000ECH   SFRSYM    DATA     BYTE      PCA0CPH2
      000000F0H.1 SFRSYM    DATA     BIT       B_B1
      000000C3H   SFRSYM    DATA     WORD      ADC0GT
      000000D2H   SFRSYM    DATA     BYTE      TMR5RLL
      000000F5H   SFRSYM    DATA     BYTE      PCA0CPH3
      000000BDH   SFRSYM    DATA     BYTE      I2C0SLAD
      000000D8H.3 SFRSYM    DATA     BIT       UART1FCN1_RFRQ
      000000F0H.2 SFRSYM    DATA     BIT       B_B2
      000000BCH   SFRSYM    DATA     BYTE      SFRPGCN
      000000FBH   SFRSYM    DATA     BYTE      PCA0CPL0
      00000085H   SFRSYM    DATA     BYTE      PCA0CPH4
      000000F0H.3 SFRSYM    DATA     BIT       B_B3
      000000D9H   SFRSYM    DATA     BYTE      PCA0MD
      000000DAH   SFRSYM    DATA     BYTE      PCA0CPM0
      000000E9H   SFRSYM    DATA     BYTE      PCA0CPL1
      000000DEH   SFRSYM    DATA     BYTE      PCA0CPH5
      000000D8H.7 SFRSYM    DATA     BIT       UART1FCN1_TFRQ
      000000F0H.4 SFRSYM    DATA     BIT       B_B4
      000000DBH   SFRSYM    DATA     BYTE      PCA0CPM1
      000000EBH   SFRSYM    DATA     BYTE      PCA0CPL2
      000000A1H   SFRSYM    DATA     BYTE      ADC0ASCF
      000000B6H   SFRSYM    DATA     BYTE      ADC0ASAH
      000000F0H.5 SFRSYM    DATA     BIT       B_B5
      000000E8H.6 SFRSYM    DATA     BIT       ADC0CN0_IPOEN
      000000E8H   SFRSYM    DATA     BIT       ADC0CN0_TEMPE
      000000DCH   SFRSYM    DATA     BYTE      PCA0CPM2
      000000F4H   SFRSYM    DATA     BYTE      PCA0CPL3
      000000B8H   SFRSYM    DATA     BYTE      IP
      000000F0H.6 SFRSYM    DATA     BIT       B_B6
      000000C5H   SFRSYM    DATA     WORD      ADC0LT
      000000AEH   SFRSYM    DATA     BYTE      PCA0CPM3
      00000084H   SFRSYM    DATA     BYTE      PCA0CPL4
      000000D8H.6 SFRSYM    DATA     BIT       UART1FCN1_TXNF
      00000098H.5 SFRSYM    DATA     BIT       SCON0_MCE
      000000F0H.7 SFRSYM    DATA     BIT       B_B7
      000000AFH   SFRSYM    DATA     BYTE      PCA0CPM4
      000000DDH   SFRSYM    DATA     BYTE      PCA0CPL5
      000000C3H   SFRSYM    DATA     BYTE      SMB0FCN0
      000000CCH   SFRSYM    DATA     BYTE      PCA0CPM5
      000000B5H   SFRSYM    DATA     BYTE      ADC0ASAL
      000000E1H   SFRSYM    DATA     BYTE      XBR0
      000000C4H   SFRSYM    DATA     BYTE      SMB0FCN1
LX51 LINKER/LOCATER V4.66.30.0                                                        04/24/2017  21:26:22  PAGE 85


      000000C1H   SFRSYM    DATA     BYTE      SMB0CF
      000000E2H   SFRSYM    DATA     BYTE      XBR1
      000000C1H   SFRSYM    DATA     BYTE      PFE0CN
      000000E7H   SFRSYM    DATA     BYTE      EMI0CN
      000000C0H.5 SFRSYM    DATA     BIT       SMB0CN0_STA
      000000E3H   SFRSYM    DATA     BYTE      XBR2
      000000B1H   SFRSYM    DATA     BYTE      CLU0CF
      000000BBH   SFRSYM    DATA     BYTE      ADC0MX
      000000E0H   SFRSYM    DATA     BIT       ACC_ACC0
      000000D1H   SFRSYM    DATA     BYTE      REF0CN
      000000B3H   SFRSYM    DATA     BYTE      CLU1CF
      0000008EH   SFRSYM    DATA     BYTE      CKCON0
      000000E0H.1 SFRSYM    DATA     BIT       ACC_ACC1
      000000C9H   SFRSYM    DATA     BYTE      REG0CN
      000000CAH   SFRSYM    DATA     BYTE      CRC0IN
      000000B6H   SFRSYM    DATA     BYTE      CLU2CF
      000000A6H   SFRSYM    DATA     BYTE      CKCON1
      000000C8H.2 SFRSYM    DATA     BIT       TMR2CN0_TR2
      000000E0H.2 SFRSYM    DATA     BIT       ACC_ACC2
      000000BFH   SFRSYM    DATA     BYTE      CLU3CF
      000000E0H.3 SFRSYM    DATA     BIT       ACC_ACC3
      00000081H   SFRSYM    DATA     BYTE      SP
      0000009DH   SFRSYM    DATA     BYTE      CMP0MD
      000000E0H.4 SFRSYM    DATA     BIT       ACC_ACC4
      000000B1H   SFRSYM    DATA     BYTE      LFO0CN
      000000ABH   SFRSYM    DATA     BYTE      CMP1MD
      000000D8H   SFRSYM    DATA     BIT       PCA0CN0_CCF0
      000000E0H.5 SFRSYM    DATA     BIT       ACC_ACC5
      00000098H.2 SFRSYM    DATA     BIT       TMR4CN0_TR4
      000000D8H.1 SFRSYM    DATA     BIT       PCA0CN0_CCF1
      000000E0H.6 SFRSYM    DATA     BIT       ACC_ACC6
      000000CEH   SFRSYM    DATA     WORD      TMR2
      0000009AH   SFRSYM    DATA     BYTE      SPI0FCN0
      000000C7H   SFRSYM    DATA     BYTE      ADC0ASCT
      000000D8H.2 SFRSYM    DATA     BIT       PCA0CN0_CCF2
      000000E0H.7 SFRSYM    DATA     BIT       ACC_ACC7
      00000094H   SFRSYM    DATA     WORD      TMR3
      0000009BH   SFRSYM    DATA     BYTE      SPI0FCN1
      000000C0H.2 SFRSYM    DATA     BIT       TMR5CN0_TR5
      000000D8H.3 SFRSYM    DATA     BIT       PCA0CN0_CCF3
      000000A4H   SFRSYM    DATA     WORD      TMR4
      00000094H   SFRSYM    DATA     BYTE      SBCON1
      000000D8H.4 SFRSYM    DATA     BIT       PCA0CN0_CCF4
      000000D4H   SFRSYM    DATA     WORD      TMR5
      000000C0H.3 SFRSYM    DATA     BIT       SMB0CN0_ACKRQ
      000000D8H.5 SFRSYM    DATA     BIT       PCA0CN0_CCF5
      000000FFH   SFRSYM    DATA     BYTE      VDM0CN
      000000F1H   SFRSYM    DATA     BYTE      P0MDIN
      000000AFH   SFRSYM    DATA     BYTE      CLU0FN
      00000098H.4 SFRSYM    DATA     BIT       SCON0_REN
      000000ACH   SFRSYM    DATA     BYTE      SMB0TC
      000000F2H   SFRSYM    DATA     BYTE      P1MDIN
      000000B2H   SFRSYM    DATA     BYTE      CLU1FN
      000000C8H.4 SFRSYM    DATA     BIT       SCON1_REN
      000000F3H   SFRSYM    DATA     BYTE      P2MDIN
      000000B5H   SFRSYM    DATA     BYTE      CLU2FN
      000000C0H.4 SFRSYM    DATA     BIT       SMB0CN0_STO
      000000F4H   SFRSYM    DATA     BYTE      P3MDIN
      000000B9H   SFRSYM    DATA     BYTE      I2C0STAT
      000000BBH   SFRSYM    DATA     BYTE      I2C0DOUT
      000000BEH   SFRSYM    DATA     BYTE      CLU3FN
      00000096H   SFRSYM    DATA     BYTE      SBRLH1
LX51 LINKER/LOCATER V4.66.30.0                                                        04/24/2017  21:26:22  PAGE 86


      000000FEH   SFRSYM    DATA     BYTE      P0MASK
      000000D8H.5 SFRSYM    DATA     BIT       UART1FCN1_TXHOLD
      000000EEH   SFRSYM    DATA     BYTE      P1MASK
      000000FCH   SFRSYM    DATA     BYTE      P2MASK
      000000D0H.3 SFRSYM    DATA     BIT       PSW_RS0
      000000D8H.7 SFRSYM    DATA     BIT       PCA0CN0_CF
      0000009EH   SFRSYM    DATA     BYTE      PCA0CENT
      000000BAH   SFRSYM    DATA     BYTE      I2C0CN0
      000000D2H   SFRSYM    DATA     BYTE      CRC0ST
      000000F8H.4 SFRSYM    DATA     BIT       SPI0CN0_RXOVRN
      000000D0H.4 SFRSYM    DATA     BIT       PSW_RS1
      00000095H   SFRSYM    DATA     BYTE      SBRLL1
      000000C8H.2 SFRSYM    DATA     BIT       SCON1_RBX
      00000091H   SFRSYM    DATA     BYTE      DAC0CF0
      000000BCH   SFRSYM    DATA     BYTE      ADC0CF0
      000000C8H   SFRSYM    DATA     BIT       TMR2CN0_T2XCLK0
      00000093H   SFRSYM    DATA     BYTE      DAC1CF0
      00000092H   SFRSYM    DATA     BYTE      DAC0CF1
      000000B9H   SFRSYM    DATA     BYTE      ADC0CF1
      000000C8H.1 SFRSYM    DATA     BIT       TMR2CN0_T2XCLK1
      000000C8H.3 SFRSYM    DATA     BIT       SCON1_TBX
      000000E8H.7 SFRSYM    DATA     BIT       ADC0CN0_ADEN
      00000089H   SFRSYM    DATA     BYTE      TMOD
      00000088H   SFRSYM    DATA     BYTE      TCON
      00000095H   SFRSYM    DATA     BYTE      DAC2CF0
      00000094H   SFRSYM    DATA     BYTE      DAC1CF1
      000000DFH   SFRSYM    DATA     BYTE      ADC0CF2
      0000009AH   SFRSYM    DATA     BYTE      DAC3CF0
      00000096H   SFRSYM    DATA     BYTE      DAC2CF1
      000000CFH   SFRSYM    DATA     BYTE      CRC0FLIP
      000000D0H   SFRSYM    DATA     BIT       PSW_PARITY
      000000A8H.4 SFRSYM    DATA     BIT       IE_ES0
      0000009CH   SFRSYM    DATA     BYTE      DAC3CF1
      0000009FH   SFRSYM    DATA     BYTE      CMP0MX
      00000098H   SFRSYM    DATA     BIT       TMR4CN0_T4XCLK0
      000000A8H.1 SFRSYM    DATA     BIT       IE_ET0
      000000AAH   SFRSYM    DATA     BYTE      CMP1MX
      00000098H.1 SFRSYM    DATA     BIT       TMR4CN0_T4XCLK1
      000000A8H.3 SFRSYM    DATA     BIT       IE_ET1
      000000D4H   SFRSYM    DATA     BYTE      P0SKIP
      000000D1H   SFRSYM    DATA     BYTE      CLOUT0
      00000090H.7 SFRSYM    DATA     BIT       BSP_JOYSTICK
      000000D8H   SFRSYM    DATA     BIT       UART1FCN1_RIE
      000000C0H   SFRSYM    DATA     BIT       TMR5CN0_T5XCLK0
      000000A8H.5 SFRSYM    DATA     BIT       IE_ET2
      00000088H   SFRSYM    DATA     BIT       DACGCF0_D1SRC0
      000000D5H   SFRSYM    DATA     BYTE      P1SKIP
      000000C0H.1 SFRSYM    DATA     BIT       TMR5CN0_T5XCLK1
      00000088H.1 SFRSYM    DATA     BIT       DACGCF0_D1SRC1
      000000CCH   SFRSYM    DATA     BYTE      P2SKIP
      00000084H   SFRSYM    DATA     BYTE      CLU0MX
      000000E8H   SFRSYM    DATA     BYTE      ADC0CN0
      000000D8H.4 SFRSYM    DATA     BIT       UART1FCN1_TIE
      000000A8H   SFRSYM    DATA     BIT       IE_EX0
      00000088H.4 SFRSYM    DATA     BIT       DACGCF0_D3SRC0
      00000085H   SFRSYM    DATA     BYTE      CLU1MX
      000000B2H   SFRSYM    DATA     BYTE      ADC0CN1
      000000D8H.6 SFRSYM    DATA     BIT       PCA0CN0_CR
      000000A8H.2 SFRSYM    DATA     BIT       IE_EX1
      00000088H.5 SFRSYM    DATA     BIT       DACGCF0_D3SRC1
      00000091H   SFRSYM    DATA     BYTE      CLU2MX
      000000B3H   SFRSYM    DATA     BYTE      ADC0CN2
LX51 LINKER/LOCATER V4.66.30.0                                                        04/24/2017  21:26:22  PAGE 87


      00000090H.5 SFRSYM    DATA     BIT       BSP_LED_B
      000000C8H.7 SFRSYM    DATA     BIT       SCON1_OVR
      000000AAH   SFRSYM    DATA     BYTE      PSTAT0
      000000AEH   SFRSYM    DATA     BYTE      CLU3MX
      000000A0H.2 SFRSYM    DATA     BIT       BSP_BC_EN
      00000098H.7 SFRSYM    DATA     BIT       SCON0_SMODE
      000000B5H   SFRSYM    DATA     BYTE      DEVICEID
      000000A9H   SFRSYM    DATA     BYTE      CLKSEL
      000000F8H   SFRSYM    DATA     BIT       SPI0CN0_SPIEN
      00000085H   SFRSYM    DATA     BYTE      DAC0H
      000000F0H   SFRSYM    DATA     BYTE      B
      000000BEH   SFRSYM    DATA     BYTE      ADC0H
      000000FFH   SFRSYM    DATA     BYTE      I2C0ADM
      0000008AH   SFRSYM    DATA     BYTE      DAC1H
      00000090H.4 SFRSYM    DATA     BIT       BSP_LED_G
      00000088H.2 SFRSYM    DATA     BIT       DACGCF0_D1AMEN
      0000008CH   SFRSYM    DATA     BYTE      DAC2H
      0000008EH   SFRSYM    DATA     BYTE      DAC3H
      00000088H.6 SFRSYM    DATA     BIT       DACGCF0_D3AMEN
      000000CAH   SFRSYM    DATA     WORD      TMR2RL
      00000084H   SFRSYM    DATA     BYTE      DAC0L
      000000BDH   SFRSYM    DATA     BYTE      ADC0L
      00000092H   SFRSYM    DATA     WORD      TMR3RL
      00000089H   SFRSYM    DATA     BYTE      DAC1L
      000000A2H   SFRSYM    DATA     WORD      TMR4RL
      000000D8H   SFRSYM    DATA     BYTE      PCA0CN0
      0000008BH   SFRSYM    DATA     BYTE      DAC2L
      000000E0H   SFRSYM    DATA     BYTE      ACC
      000000D2H   SFRSYM    DATA     WORD      TMR5RL
      000000D9H   SFRSYM    DATA     BYTE      UART0PCF
      0000008DH   SFRSYM    DATA     BYTE      DAC3L
      000000FBH   SFRSYM    DATA     WORD      PCA0CP0
      000000DAH   SFRSYM    DATA     BYTE      UART1PCF
      000000E9H   SFRSYM    DATA     WORD      PCA0CP1
      00000088H   SFRSYM    DATA     BYTE      DACGCF0
      000000EBH   SFRSYM    DATA     WORD      PCA0CP2
      000000BCH   SFRSYM    DATA     BYTE      I2C0DIN
      00000098H   SFRSYM    DATA     BYTE      DACGCF1
      000000CEH   SFRSYM    DATA     BYTE      CRC0CN0
      000000F4H   SFRSYM    DATA     WORD      PCA0CP3
      0000008CH   SFRSYM    DATA     BYTE      TH0
      000000A2H   SFRSYM    DATA     BYTE      DACGCF2
      00000086H   SFRSYM    DATA     BYTE      CRC0CN1
      000000B8H.4 SFRSYM    DATA     BIT       IP_PS0
      00000084H   SFRSYM    DATA     WORD      PCA0CP4
      000000FAH   SFRSYM    DATA     BYTE      UART1FCT
      0000008DH   SFRSYM    DATA     BYTE      TH1
      000000FAH   SFRSYM    DATA     BYTE      PCA0H
      000000F5H   SFRSYM    DATA     BYTE      I2C0FCT
      00000090H.6 SFRSYM    DATA     BIT       BSP_LED_R
      000000B8H.1 SFRSYM    DATA     BIT       IP_PT0
      000000DDH   SFRSYM    DATA     WORD      PCA0CP5
      000000C7H   SFRSYM    DATA     BYTE      CLIE0
      000000B8H.3 SFRSYM    DATA     BIT       IP_PT1
      00000088H.3 SFRSYM    DATA     BIT       DACGCF0_D01REFSL
      000000B5H   SFRSYM    DATA     WORD      ADC0ASA
      000000E8H   SFRSYM    DATA     BYTE      CLIF0
      000000C0H.2 SFRSYM    DATA     BIT       SMB0CN0_ARBLOST
      000000B8H.5 SFRSYM    DATA     BIT       IP_PT2
      0000008AH   SFRSYM    DATA     BYTE      TL0
      000000D0H.5 SFRSYM    DATA     BIT       PSW_F0
      000000A8H.6 SFRSYM    DATA     BIT       IE_ESPI0
LX51 LINKER/LOCATER V4.66.30.0                                                        04/24/2017  21:26:22  PAGE 88


      0000008BH   SFRSYM    DATA     BYTE      TL1
      000000F9H   SFRSYM    DATA     BYTE      PCA0L
      000000C0H   SFRSYM    DATA     BIT       SMB0CN0_SI
      000000D0H.1 SFRSYM    DATA     BIT       PSW_F1
      00000080H   SFRSYM    DATA     BIT       P0_B0
      000000B8H   SFRSYM    DATA     BIT       IP_PX0
      00000090H   SFRSYM    DATA     BIT       P1_B0
      00000080H.1 SFRSYM    DATA     BIT       P0_B1
      000000B8H.2 SFRSYM    DATA     BIT       IP_PX1
      00000088H.7 SFRSYM    DATA     BIT       DACGCF0_D23REFSL
      0000009EH   SFRSYM    DATA     BYTE      UART1LIN
      0000009BH   SFRSYM    DATA     BYTE      CMP0CN0
      000000C6H   SFRSYM    DATA     BYTE      CLEN0
      00000088H.1 SFRSYM    DATA     BIT       TCON_IE0
      000000A0H   SFRSYM    DATA     BIT       P2_B0
      00000090H.1 SFRSYM    DATA     BIT       P1_B1
      00000080H.2 SFRSYM    DATA     BIT       P0_B2
      000000BFH   SFRSYM    DATA     BYTE      CMP1CN0
      00000099H   SFRSYM    DATA     BYTE      CMP0CN1
      00000088H.3 SFRSYM    DATA     BIT       TCON_IE1
      000000B0H   SFRSYM    DATA     BIT       P3_B0
      000000A0H.1 SFRSYM    DATA     BIT       P2_B1
      00000090H.2 SFRSYM    DATA     BIT       P1_B2
      00000080H.3 SFRSYM    DATA     BIT       P0_B3
      000000C0H   SFRSYM    DATA     BYTE      SMB0CN0
      000000ACH   SFRSYM    DATA     BYTE      CMP1CN1
      000000B0H.1 SFRSYM    DATA     BIT       P3_B1
      000000A0H.2 SFRSYM    DATA     BIT       P2_B2
      00000090H.3 SFRSYM    DATA     BIT       P1_B3
      00000080H.4 SFRSYM    DATA     BIT       P0_B4
      000000B0H.2 SFRSYM    DATA     BIT       P3_B2
      000000A0H.3 SFRSYM    DATA     BIT       P2_B3
      00000090H.4 SFRSYM    DATA     BIT       P1_B4
      00000080H.5 SFRSYM    DATA     BIT       P0_B5
      00000098H   SFRSYM    DATA     BIT       DACGCF1_D0UDIS
      000000D8H.1 SFRSYM    DATA     BIT       UART1FCN1_RXTO0
      000000B0H.3 SFRSYM    DATA     BIT       P3_B3
      000000A0H.4 SFRSYM    DATA     BIT       P2_B4
      00000090H.5 SFRSYM    DATA     BIT       P1_B5
      00000080H.6 SFRSYM    DATA     BIT       P0_B6
      00000098H.1 SFRSYM    DATA     BIT       DACGCF1_D1UDIS
      000000EEH   SFRSYM    DATA     BYTE      EIP1H
      000000D8H.2 SFRSYM    DATA     BIT       UART1FCN1_RXTO1
      000000B0H.4 SFRSYM    DATA     BIT       P3_B4
      000000A0H.5 SFRSYM    DATA     BIT       P2_B5
      00000090H.6 SFRSYM    DATA     BIT       P1_B6
      00000080H.7 SFRSYM    DATA     BIT       P0_B7
      00000098H.2 SFRSYM    DATA     BIT       DACGCF1_D2UDIS
      000000C5H   SFRSYM    DATA     BYTE      SMB0RXLN
      000000F6H   SFRSYM    DATA     BYTE      EIP2H
      000000A0H.6 SFRSYM    DATA     BIT       P2_B6
      00000090H.7 SFRSYM    DATA     BIT       P1_B7
      00000098H.3 SFRSYM    DATA     BIT       DACGCF1_D3UDIS
      000000B0H.7 SFRSYM    DATA     BIT       P3_B7
      00000083H   SFRSYM    DATA     BYTE      DPH
      000000C4H   SFRSYM    DATA     BYTE      ADC0GTH
      000000C8H.7 SFRSYM    DATA     BIT       TMR2CN0_TF2H
      000000C8H.3 SFRSYM    DATA     BIT       TMR2CN0_T2SPLIT
      000000D0H.6 SFRSYM    DATA     BIT       PSW_AC
      000000F8H   SFRSYM    DATA     BYTE      SPI0CN0
      000000C7H   SFRSYM    DATA     BYTE      HFO0CAL
      00000088H.5 SFRSYM    DATA     BIT       TCON_TF0
LX51 LINKER/LOCATER V4.66.30.0                                                        04/24/2017  21:26:22  PAGE 89


      00000098H   SFRSYM    DATA     BIT       SCON0_RI
      000000D6H   SFRSYM    DATA     BYTE      HFO1CAL
      00000082H   SFRSYM    DATA     BYTE      DPL
      00000088H.7 SFRSYM    DATA     BIT       TCON_TF1
      000000C8H   SFRSYM    DATA     BIT       SCON1_RI
      00000099H   SFRSYM    DATA     BYTE      SBUF0
      00000087H   SFRSYM    DATA     BYTE      PCON0
      000000F2H   SFRSYM    DATA     BYTE      IPH
      000000C3H   SFRSYM    DATA     BYTE      ADC0GTL
      00000098H.7 SFRSYM    DATA     BIT       TMR4CN0_TF4H
      00000098H.3 SFRSYM    DATA     BIT       TMR4CN0_T4SPLIT
      000000C8H.6 SFRSYM    DATA     BIT       TMR2CN0_TF2L
      00000098H.1 SFRSYM    DATA     BIT       SCON0_TI
      00000092H   SFRSYM    DATA     BYTE      SBUF1
      000000CDH   SFRSYM    DATA     BYTE      PCON1
      000000C6H   SFRSYM    DATA     BYTE      ADC0LTH
      00000088H   SFRSYM    DATA     BIT       TCON_IT0
      000000C8H.1 SFRSYM    DATA     BIT       SCON1_TI
      000000EFH   SFRSYM    DATA     BYTE      RSTSRC
      000000FDH   SFRSYM    DATA     BYTE      P0MAT
      000000CBH   SFRSYM    DATA     BYTE      CRC0DAT
      000000C0H.7 SFRSYM    DATA     BIT       TMR5CN0_TF5H
      000000C0H.3 SFRSYM    DATA     BIT       TMR5CN0_T5SPLIT
      00000088H.2 SFRSYM    DATA     BIT       TCON_IT1
      000000D7H   SFRSYM    DATA     BYTE      SFRSTACK
      00000098H   SFRSYM    DATA     BYTE      SCON0
      000000F6H   SFRSYM    DATA     BYTE      PRTDRV
      000000EDH   SFRSYM    DATA     BYTE      P1MAT
      000000E8H.3 SFRSYM    DATA     BIT       ADC0CN0_ADWINT
      00000093H   SFRSYM    DATA     BYTE      SMOD1
      000000C8H   SFRSYM    DATA     BYTE      SCON1
      000000FBH   SFRSYM    DATA     BYTE      P2MAT
      00000098H.6 SFRSYM    DATA     BIT       TMR4CN0_TF4L
      000000E8H.4 SFRSYM    DATA     BIT       ADC0CN0_ADBUSY
      000000D6H   SFRSYM    DATA     BYTE      SMB0ADM
      000000C5H   SFRSYM    DATA     BYTE      ADC0LTL
      000000F8H.5 SFRSYM    DATA     BIT       SPI0CN0_MODF
      000000B8H.6 SFRSYM    DATA     BIT       IP_PSPI0
      000000E8H.1 SFRSYM    DATA     BIT       ADC0CN0_ADGN0
      0000009CH   SFRSYM    DATA     BYTE      PCA0CLR
      000000C0H.6 SFRSYM    DATA     BIT       TMR5CN0_TF5L
      000000E8H.2 SFRSYM    DATA     BIT       ADC0CN0_ADGN1
      000000C8H   SFRSYM    DATA     BYTE      TMR2CN0
      00000091H   SFRSYM    DATA     BYTE      TMR3CN0
      000000FDH   SFRSYM    DATA     BYTE      TMR2CN1
      00000098H   SFRSYM    DATA     BYTE      TMR4CN0
      000000FEH   SFRSYM    DATA     BYTE      TMR3CN1
      000000B0H.4 SFRSYM    DATA     BIT       BSP_DISP_EN
      000000C0H   SFRSYM    DATA     BYTE      TMR5CN0
      000000FFH   SFRSYM    DATA     BYTE      TMR4CN1
      000000D7H   SFRSYM    DATA     BYTE      SMB0ADR
      00000088H.4 SFRSYM    DATA     BIT       TCON_TR0
      000000F1H   SFRSYM    DATA     BYTE      TMR5CN1
      000000C8H.4 SFRSYM    DATA     BIT       TMR2CN0_TF2CEN
      00000088H.6 SFRSYM    DATA     BIT       TCON_TR1
      000000C2H   SFRSYM    DATA     BYTE      SMB0DAT
      000000A0H.6 SFRSYM    DATA     BIT       BSP_DISP_CS
      000000CFH   SFRSYM    DATA     BYTE      TMR2H
      000000A1H   SFRSYM    DATA     BYTE      SPI0CFG
      00000095H   SFRSYM    DATA     BYTE      TMR3H
      000000EFH   SFRSYM    DATA     BYTE      HFOCN
      000000D3H   SFRSYM    DATA     BYTE      CRC0CNT
LX51 LINKER/LOCATER V4.66.30.0                                                        04/24/2017  21:26:22  PAGE 90


      000000A5H   SFRSYM    DATA     BYTE      TMR4H
      00000098H.4 SFRSYM    DATA     BIT       TMR4CN0_TF4CEN
      000000D5H   SFRSYM    DATA     BYTE      TMR5H
      000000EFH   SFRSYM    DATA     BYTE      SMB0FCT
      00000096H   SFRSYM    DATA     BYTE      PCA0POL
      000000CEH   SFRSYM    DATA     BYTE      TMR2L
      000000C0H.4 SFRSYM    DATA     BIT       TMR5CN0_TF5CEN
      000000F8H.7 SFRSYM    DATA     BIT       SPI0CN0_SPIF
      00000094H   SFRSYM    DATA     BYTE      TMR3L
      000000A8H.7 SFRSYM    DATA     BIT       IE_EA
      000000A4H   SFRSYM    DATA     BYTE      TMR4L
      000000D4H   SFRSYM    DATA     BYTE      TMR5L
      000000C8H.5 SFRSYM    DATA     BIT       TMR2CN0_TF2LEN
      000000F8H.6 SFRSYM    DATA     BIT       SPI0CN0_WCOL
      000000F8H.2 SFRSYM    DATA     BIT       SPI0CN0_NSSMD0
      000000D0H.7 SFRSYM    DATA     BIT       PSW_CY
      0000009DH   SFRSYM    DATA     BYTE      UART1FCN0
      000000DFH   SFRSYM    DATA     BYTE      SPI0PCF
      000000A3H   SFRSYM    DATA     BYTE      SPI0DAT
      000000ADH   SFRSYM    DATA     BYTE      I2C0FCN0
      000000F8H.3 SFRSYM    DATA     BIT       SPI0CN0_NSSMD1
      000000BDH   SFRSYM    DATA     WORD      ADC0
      000000D8H   SFRSYM    DATA     BYTE      UART1FCN1
      000000ABH   SFRSYM    DATA     BYTE      I2C0FCN1
      000000E8H   SFRSYM    DATA     BIT       CLIF0_C0FIF
      00000098H.5 SFRSYM    DATA     BIT       TMR4CN0_TF4LEN
      000000E8H.2 SFRSYM    DATA     BIT       CLIF0_C1FIF
      000000D0H   SFRSYM    DATA     BYTE      PSW
      000000F7H   SFRSYM    DATA     BYTE      PCA0PWM
      000000E8H.4 SFRSYM    DATA     BIT       CLIF0_C2FIF
      000000F7H   SFRSYM    DATA     BYTE      SPI0FCT
      000000B6H   SFRSYM    DATA     BYTE      REVID
      000000C0H.5 SFRSYM    DATA     BIT       TMR5CN0_TF5LEN
      000000E8H.6 SFRSYM    DATA     BIT       CLIF0_C3FIF
      000000B7H   SFRSYM    DATA     BYTE      FLKEY
      00000004H   SYMBOL    DATA     DWORD     voltage

      01000CC7H   BLOCK     CODE     ---       LVL=0
      01000CE4H   BLOCK     CODE     NEAR LAB  LVL=1
      00000051H   SYMBOL    DATA     DWORD     accumulator
      00000055H   SYMBOL    DATA     WORD      measurements
      0000004DH   SYMBOL    DATA     DWORD     result
      ---         BLOCKEND  ---      ---       LVL=1
      01000CC7H   LINE      CODE     ---       #55
      01000CE4H   LINE      CODE     ---       #60
      01000CF0H   LINE      CODE     ---       #62
      01000CF2H   LINE      CODE     ---       #64
      01000D0DH   LINE      CODE     ---       #65
      01000D15H   LINE      CODE     ---       #67
      01000D1BH   LINE      CODE     ---       #68
      01000D1BH   LINE      CODE     ---       #69
      01000D20H   LINE      CODE     ---       #70
      01000D2CH   LINE      CODE     ---       #71
      01000D34H   LINE      CODE     ---       #81
      01000D55H   LINE      CODE     ---       #82
      01000D55H   LINE      CODE     ---       #83
      ---         BLOCKEND  ---      ---       LVL=0

      ---         MODULE    ---      ---       STARTLIGHTS
      01001423H   PUBLIC    CODE     NEAR LAB  GREEN
      0100142AH   PUBLIC    CODE     NEAR LAB  OFF
      01001415H   PUBLIC    CODE     NEAR LAB  RED
LX51 LINKER/LOCATER V4.66.30.0                                                        04/24/2017  21:26:22  PAGE 91


      010011F7H   PUBLIC    CODE     NEAR LAB  START
      0100141CH   PUBLIC    CODE     NEAR LAB  YELLOW
      000000E0H   SFRSYM    DATA     BYTE      ACC
      000000E0H   SFRSYM    DATA     BIT       ACC_ACC0
      000000E0H.1 SFRSYM    DATA     BIT       ACC_ACC1
      000000E0H.2 SFRSYM    DATA     BIT       ACC_ACC2
      000000E0H.3 SFRSYM    DATA     BIT       ACC_ACC3
      000000E0H.4 SFRSYM    DATA     BIT       ACC_ACC4
      000000E0H.5 SFRSYM    DATA     BIT       ACC_ACC5
      000000E0H.6 SFRSYM    DATA     BIT       ACC_ACC6
      000000E0H.7 SFRSYM    DATA     BIT       ACC_ACC7
      000000BDH   SFRSYM    DATA     WORD      ADC0
      000000B5H   SFRSYM    DATA     WORD      ADC0ASA
      000000B6H   SFRSYM    DATA     BYTE      ADC0ASAH
      000000B5H   SFRSYM    DATA     BYTE      ADC0ASAL
      000000A1H   SFRSYM    DATA     BYTE      ADC0ASCF
      000000C7H   SFRSYM    DATA     BYTE      ADC0ASCT
      000000BCH   SFRSYM    DATA     BYTE      ADC0CF0
      000000B9H   SFRSYM    DATA     BYTE      ADC0CF1
      000000DFH   SFRSYM    DATA     BYTE      ADC0CF2
      000000E8H   SFRSYM    DATA     BYTE      ADC0CN0
      000000E8H.4 SFRSYM    DATA     BIT       ADC0CN0_ADBUSY
      000000E8H.7 SFRSYM    DATA     BIT       ADC0CN0_ADEN
      000000E8H.1 SFRSYM    DATA     BIT       ADC0CN0_ADGN0
      000000E8H.2 SFRSYM    DATA     BIT       ADC0CN0_ADGN1
      000000E8H.5 SFRSYM    DATA     BIT       ADC0CN0_ADINT
      000000E8H.3 SFRSYM    DATA     BIT       ADC0CN0_ADWINT
      000000E8H.6 SFRSYM    DATA     BIT       ADC0CN0_IPOEN
      000000E8H   SFRSYM    DATA     BIT       ADC0CN0_TEMPE
      000000B2H   SFRSYM    DATA     BYTE      ADC0CN1
      000000B3H   SFRSYM    DATA     BYTE      ADC0CN2
      000000C3H   SFRSYM    DATA     WORD      ADC0GT
      000000C4H   SFRSYM    DATA     BYTE      ADC0GTH
      000000C3H   SFRSYM    DATA     BYTE      ADC0GTL
      000000BEH   SFRSYM    DATA     BYTE      ADC0H
      000000BDH   SFRSYM    DATA     BYTE      ADC0L
      000000C5H   SFRSYM    DATA     WORD      ADC0LT
      000000C6H   SFRSYM    DATA     BYTE      ADC0LTH
      000000C5H   SFRSYM    DATA     BYTE      ADC0LTL
      000000BBH   SFRSYM    DATA     BYTE      ADC0MX
      000000F0H   SFRSYM    DATA     BYTE      B
      000000F0H   SFRSYM    DATA     BIT       B_B0
      000000F0H.1 SFRSYM    DATA     BIT       B_B1
      000000F0H.2 SFRSYM    DATA     BIT       B_B2
      000000F0H.3 SFRSYM    DATA     BIT       B_B3
      000000F0H.4 SFRSYM    DATA     BIT       B_B4
      000000F0H.5 SFRSYM    DATA     BIT       B_B5
      000000F0H.6 SFRSYM    DATA     BIT       B_B6
      000000F0H.7 SFRSYM    DATA     BIT       B_B7
      0000008EH   SFRSYM    DATA     BYTE      CKCON0
      000000A6H   SFRSYM    DATA     BYTE      CKCON1
      000000C6H   SFRSYM    DATA     BYTE      CLEN0
      000000C7H   SFRSYM    DATA     BYTE      CLIE0
      000000E8H   SFRSYM    DATA     BYTE      CLIF0
      000000E8H   SFRSYM    DATA     BIT       CLIF0_C0FIF
      000000E8H.1 SFRSYM    DATA     BIT       CLIF0_C0RIF
      000000E8H.2 SFRSYM    DATA     BIT       CLIF0_C1FIF
      000000E8H.3 SFRSYM    DATA     BIT       CLIF0_C1RIF
      000000E8H.4 SFRSYM    DATA     BIT       CLIF0_C2FIF
      000000E8H.5 SFRSYM    DATA     BIT       CLIF0_C2RIF
      000000E8H.6 SFRSYM    DATA     BIT       CLIF0_C3FIF
      000000E8H.7 SFRSYM    DATA     BIT       CLIF0_C3RIF
LX51 LINKER/LOCATER V4.66.30.0                                                        04/24/2017  21:26:22  PAGE 92


      000000A9H   SFRSYM    DATA     BYTE      CLKSEL
      000000D1H   SFRSYM    DATA     BYTE      CLOUT0
      000000B1H   SFRSYM    DATA     BYTE      CLU0CF
      000000AFH   SFRSYM    DATA     BYTE      CLU0FN
      00000084H   SFRSYM    DATA     BYTE      CLU0MX
      000000B3H   SFRSYM    DATA     BYTE      CLU1CF
      000000B2H   SFRSYM    DATA     BYTE      CLU1FN
      00000085H   SFRSYM    DATA     BYTE      CLU1MX
      000000B6H   SFRSYM    DATA     BYTE      CLU2CF
      000000B5H   SFRSYM    DATA     BYTE      CLU2FN
      00000091H   SFRSYM    DATA     BYTE      CLU2MX
      000000BFH   SFRSYM    DATA     BYTE      CLU3CF
      000000BEH   SFRSYM    DATA     BYTE      CLU3FN
      000000AEH   SFRSYM    DATA     BYTE      CLU3MX
      0000009BH   SFRSYM    DATA     BYTE      CMP0CN0
      00000099H   SFRSYM    DATA     BYTE      CMP0CN1
      0000009DH   SFRSYM    DATA     BYTE      CMP0MD
      0000009FH   SFRSYM    DATA     BYTE      CMP0MX
      000000BFH   SFRSYM    DATA     BYTE      CMP1CN0
      000000ACH   SFRSYM    DATA     BYTE      CMP1CN1
      000000ABH   SFRSYM    DATA     BYTE      CMP1MD
      000000AAH   SFRSYM    DATA     BYTE      CMP1MX
      000000CEH   SFRSYM    DATA     BYTE      CRC0CN0
      00000086H   SFRSYM    DATA     BYTE      CRC0CN1
      000000D3H   SFRSYM    DATA     BYTE      CRC0CNT
      000000CBH   SFRSYM    DATA     BYTE      CRC0DAT
      000000CFH   SFRSYM    DATA     BYTE      CRC0FLIP
      000000CAH   SFRSYM    DATA     BYTE      CRC0IN
      000000D2H   SFRSYM    DATA     BYTE      CRC0ST
      00000091H   SFRSYM    DATA     BYTE      DAC0CF0
      00000092H   SFRSYM    DATA     BYTE      DAC0CF1
      00000085H   SFRSYM    DATA     BYTE      DAC0H
      00000084H   SFRSYM    DATA     BYTE      DAC0L
      00000093H   SFRSYM    DATA     BYTE      DAC1CF0
      00000094H   SFRSYM    DATA     BYTE      DAC1CF1
      0000008AH   SFRSYM    DATA     BYTE      DAC1H
      00000089H   SFRSYM    DATA     BYTE      DAC1L
      00000095H   SFRSYM    DATA     BYTE      DAC2CF0
      00000096H   SFRSYM    DATA     BYTE      DAC2CF1
      0000008CH   SFRSYM    DATA     BYTE      DAC2H
      0000008BH   SFRSYM    DATA     BYTE      DAC2L
      0000009AH   SFRSYM    DATA     BYTE      DAC3CF0
      0000009CH   SFRSYM    DATA     BYTE      DAC3CF1
      0000008EH   SFRSYM    DATA     BYTE      DAC3H
      0000008DH   SFRSYM    DATA     BYTE      DAC3L
      00000088H   SFRSYM    DATA     BYTE      DACGCF0
      00000088H.3 SFRSYM    DATA     BIT       DACGCF0_D01REFSL
      00000088H.2 SFRSYM    DATA     BIT       DACGCF0_D1AMEN
      00000088H   SFRSYM    DATA     BIT       DACGCF0_D1SRC0
      00000088H.1 SFRSYM    DATA     BIT       DACGCF0_D1SRC1
      00000088H.7 SFRSYM    DATA     BIT       DACGCF0_D23REFSL
      00000088H.6 SFRSYM    DATA     BIT       DACGCF0_D3AMEN
      00000088H.4 SFRSYM    DATA     BIT       DACGCF0_D3SRC0
      00000088H.5 SFRSYM    DATA     BIT       DACGCF0_D3SRC1
      00000098H   SFRSYM    DATA     BYTE      DACGCF1
      00000098H   SFRSYM    DATA     BIT       DACGCF1_D0UDIS
      00000098H.1 SFRSYM    DATA     BIT       DACGCF1_D1UDIS
      00000098H.2 SFRSYM    DATA     BIT       DACGCF1_D2UDIS
      00000098H.3 SFRSYM    DATA     BIT       DACGCF1_D3UDIS
      000000A2H   SFRSYM    DATA     BYTE      DACGCF2
      000000ADH   SFRSYM    DATA     BYTE      DERIVID
      000000B5H   SFRSYM    DATA     BYTE      DEVICEID
LX51 LINKER/LOCATER V4.66.30.0                                                        04/24/2017  21:26:22  PAGE 93


      00000082H   SFRSYM    DATA     WORD      DP
      00000083H   SFRSYM    DATA     BYTE      DPH
      00000082H   SFRSYM    DATA     BYTE      DPL
      000000E6H   SFRSYM    DATA     BYTE      EIE1
      000000F3H   SFRSYM    DATA     BYTE      EIE2
      000000BBH   SFRSYM    DATA     BYTE      EIP1
      000000EEH   SFRSYM    DATA     BYTE      EIP1H
      000000EDH   SFRSYM    DATA     BYTE      EIP2
      000000F6H   SFRSYM    DATA     BYTE      EIP2H
      000000E7H   SFRSYM    DATA     BYTE      EMI0CN
      000000B7H   SFRSYM    DATA     BYTE      FLKEY
      000000C7H   SFRSYM    DATA     BYTE      HFO0CAL
      000000D6H   SFRSYM    DATA     BYTE      HFO1CAL
      000000EFH   SFRSYM    DATA     BYTE      HFOCN
      000000FFH   SFRSYM    DATA     BYTE      I2C0ADM
      000000BAH   SFRSYM    DATA     BYTE      I2C0CN0
      000000BCH   SFRSYM    DATA     BYTE      I2C0DIN
      000000BBH   SFRSYM    DATA     BYTE      I2C0DOUT
      000000ADH   SFRSYM    DATA     BYTE      I2C0FCN0
      000000ABH   SFRSYM    DATA     BYTE      I2C0FCN1
      000000F5H   SFRSYM    DATA     BYTE      I2C0FCT
      000000BDH   SFRSYM    DATA     BYTE      I2C0SLAD
      000000B9H   SFRSYM    DATA     BYTE      I2C0STAT
      000000A8H   SFRSYM    DATA     BYTE      IE
      000000A8H.7 SFRSYM    DATA     BIT       IE_EA
      000000A8H.4 SFRSYM    DATA     BIT       IE_ES0
      000000A8H.6 SFRSYM    DATA     BIT       IE_ESPI0
      000000A8H.1 SFRSYM    DATA     BIT       IE_ET0
      000000A8H.3 SFRSYM    DATA     BIT       IE_ET1
      000000A8H.5 SFRSYM    DATA     BIT       IE_ET2
      000000A8H   SFRSYM    DATA     BIT       IE_EX0
      000000A8H.2 SFRSYM    DATA     BIT       IE_EX1
      000000B8H   SFRSYM    DATA     BYTE      IP
      000000B8H.4 SFRSYM    DATA     BIT       IP_PS0
      000000B8H.6 SFRSYM    DATA     BIT       IP_PSPI0
      000000B8H.1 SFRSYM    DATA     BIT       IP_PT0
      000000B8H.3 SFRSYM    DATA     BIT       IP_PT1
      000000B8H.5 SFRSYM    DATA     BIT       IP_PT2
      000000B8H   SFRSYM    DATA     BIT       IP_PX0
      000000B8H.2 SFRSYM    DATA     BIT       IP_PX1
      000000F2H   SFRSYM    DATA     BYTE      IPH
      000000E4H   SFRSYM    DATA     BYTE      IT01CF
      000000B1H   SFRSYM    DATA     BYTE      LFO0CN
      00000080H   SFRSYM    DATA     BYTE      P0
      00000080H   SFRSYM    DATA     BIT       P0_B0
      00000080H.1 SFRSYM    DATA     BIT       P0_B1
      00000080H.2 SFRSYM    DATA     BIT       P0_B2
      00000080H.3 SFRSYM    DATA     BIT       P0_B3
      00000080H.4 SFRSYM    DATA     BIT       P0_B4
      00000080H.5 SFRSYM    DATA     BIT       P0_B5
      00000080H.6 SFRSYM    DATA     BIT       P0_B6
      00000080H.7 SFRSYM    DATA     BIT       P0_B7
      000000FEH   SFRSYM    DATA     BYTE      P0MASK
      000000FDH   SFRSYM    DATA     BYTE      P0MAT
      000000F1H   SFRSYM    DATA     BYTE      P0MDIN
      000000A4H   SFRSYM    DATA     BYTE      P0MDOUT
      000000D4H   SFRSYM    DATA     BYTE      P0SKIP
      00000090H   SFRSYM    DATA     BYTE      P1
      00000090H   SFRSYM    DATA     BIT       P1_B0
      00000090H.1 SFRSYM    DATA     BIT       P1_B1
      00000090H.2 SFRSYM    DATA     BIT       P1_B2
      00000090H.3 SFRSYM    DATA     BIT       P1_B3
LX51 LINKER/LOCATER V4.66.30.0                                                        04/24/2017  21:26:22  PAGE 94


      00000090H.4 SFRSYM    DATA     BIT       P1_B4
      00000090H.5 SFRSYM    DATA     BIT       P1_B5
      00000090H.6 SFRSYM    DATA     BIT       P1_B6
      00000090H.7 SFRSYM    DATA     BIT       P1_B7
      000000EEH   SFRSYM    DATA     BYTE      P1MASK
      000000EDH   SFRSYM    DATA     BYTE      P1MAT
      000000F2H   SFRSYM    DATA     BYTE      P1MDIN
      000000A5H   SFRSYM    DATA     BYTE      P1MDOUT
      000000D5H   SFRSYM    DATA     BYTE      P1SKIP
      000000A0H   SFRSYM    DATA     BYTE      P2
      000000A0H   SFRSYM    DATA     BIT       P2_B0
      000000A0H.1 SFRSYM    DATA     BIT       P2_B1
      000000A0H.2 SFRSYM    DATA     BIT       P2_B2
      000000A0H.3 SFRSYM    DATA     BIT       P2_B3
      000000A0H.4 SFRSYM    DATA     BIT       P2_B4
      000000A0H.5 SFRSYM    DATA     BIT       P2_B5
      000000A0H.6 SFRSYM    DATA     BIT       P2_B6
      000000FCH   SFRSYM    DATA     BYTE      P2MASK
      000000FBH   SFRSYM    DATA     BYTE      P2MAT
      000000F3H   SFRSYM    DATA     BYTE      P2MDIN
      000000A6H   SFRSYM    DATA     BYTE      P2MDOUT
      000000CCH   SFRSYM    DATA     BYTE      P2SKIP
      000000B0H   SFRSYM    DATA     BYTE      P3
      000000B0H   SFRSYM    DATA     BIT       P3_B0
      000000B0H.1 SFRSYM    DATA     BIT       P3_B1
      000000B0H.2 SFRSYM    DATA     BIT       P3_B2
      000000B0H.3 SFRSYM    DATA     BIT       P3_B3
      000000B0H.4 SFRSYM    DATA     BIT       P3_B4
      000000B0H.7 SFRSYM    DATA     BIT       P3_B7
      000000F4H   SFRSYM    DATA     BYTE      P3MDIN
      0000009CH   SFRSYM    DATA     BYTE      P3MDOUT
      000000F9H   SFRSYM    DATA     WORD      PCA0
      0000009EH   SFRSYM    DATA     BYTE      PCA0CENT
      0000009CH   SFRSYM    DATA     BYTE      PCA0CLR
      000000D8H   SFRSYM    DATA     BYTE      PCA0CN0
      000000D8H   SFRSYM    DATA     BIT       PCA0CN0_CCF0
      000000D8H.1 SFRSYM    DATA     BIT       PCA0CN0_CCF1
      000000D8H.2 SFRSYM    DATA     BIT       PCA0CN0_CCF2
      000000D8H.3 SFRSYM    DATA     BIT       PCA0CN0_CCF3
      000000D8H.4 SFRSYM    DATA     BIT       PCA0CN0_CCF4
      000000D8H.5 SFRSYM    DATA     BIT       PCA0CN0_CCF5
      000000D8H.7 SFRSYM    DATA     BIT       PCA0CN0_CF
      000000D8H.6 SFRSYM    DATA     BIT       PCA0CN0_CR
      000000FBH   SFRSYM    DATA     WORD      PCA0CP0
      000000E9H   SFRSYM    DATA     WORD      PCA0CP1
      000000EBH   SFRSYM    DATA     WORD      PCA0CP2
      000000F4H   SFRSYM    DATA     WORD      PCA0CP3
      00000084H   SFRSYM    DATA     WORD      PCA0CP4
      000000DDH   SFRSYM    DATA     WORD      PCA0CP5
      000000FCH   SFRSYM    DATA     BYTE      PCA0CPH0
      000000EAH   SFRSYM    DATA     BYTE      PCA0CPH1
      000000ECH   SFRSYM    DATA     BYTE      PCA0CPH2
      000000F5H   SFRSYM    DATA     BYTE      PCA0CPH3
      00000085H   SFRSYM    DATA     BYTE      PCA0CPH4
      000000DEH   SFRSYM    DATA     BYTE      PCA0CPH5
      000000FBH   SFRSYM    DATA     BYTE      PCA0CPL0
      000000E9H   SFRSYM    DATA     BYTE      PCA0CPL1
      000000EBH   SFRSYM    DATA     BYTE      PCA0CPL2
      000000F4H   SFRSYM    DATA     BYTE      PCA0CPL3
      00000084H   SFRSYM    DATA     BYTE      PCA0CPL4
      000000DDH   SFRSYM    DATA     BYTE      PCA0CPL5
      000000DAH   SFRSYM    DATA     BYTE      PCA0CPM0
LX51 LINKER/LOCATER V4.66.30.0                                                        04/24/2017  21:26:22  PAGE 95


      000000DBH   SFRSYM    DATA     BYTE      PCA0CPM1
      000000DCH   SFRSYM    DATA     BYTE      PCA0CPM2
      000000AEH   SFRSYM    DATA     BYTE      PCA0CPM3
      000000AFH   SFRSYM    DATA     BYTE      PCA0CPM4
      000000CCH   SFRSYM    DATA     BYTE      PCA0CPM5
      000000FAH   SFRSYM    DATA     BYTE      PCA0H
      000000F9H   SFRSYM    DATA     BYTE      PCA0L
      000000D9H   SFRSYM    DATA     BYTE      PCA0MD
      00000096H   SFRSYM    DATA     BYTE      PCA0POL
      000000F7H   SFRSYM    DATA     BYTE      PCA0PWM
      00000087H   SFRSYM    DATA     BYTE      PCON0
      000000CDH   SFRSYM    DATA     BYTE      PCON1
      000000C1H   SFRSYM    DATA     BYTE      PFE0CN
      000000F6H   SFRSYM    DATA     BYTE      PRTDRV
      0000008FH   SFRSYM    DATA     BYTE      PSCTL
      000000AAH   SFRSYM    DATA     BYTE      PSTAT0
      000000D0H   SFRSYM    DATA     BYTE      PSW
      000000D0H.6 SFRSYM    DATA     BIT       PSW_AC
      000000D0H.7 SFRSYM    DATA     BIT       PSW_CY
      000000D0H.5 SFRSYM    DATA     BIT       PSW_F0
      000000D0H.1 SFRSYM    DATA     BIT       PSW_F1
      000000D0H.2 SFRSYM    DATA     BIT       PSW_OV
      000000D0H   SFRSYM    DATA     BIT       PSW_PARITY
      000000D0H.3 SFRSYM    DATA     BIT       PSW_RS0
      000000D0H.4 SFRSYM    DATA     BIT       PSW_RS1
      000000D1H   SFRSYM    DATA     BYTE      REF0CN
      000000C9H   SFRSYM    DATA     BYTE      REG0CN
      000000B6H   SFRSYM    DATA     BYTE      REVID
      000000EFH   SFRSYM    DATA     BYTE      RSTSRC
      00000094H   SFRSYM    DATA     BYTE      SBCON1
      00000096H   SFRSYM    DATA     BYTE      SBRLH1
      00000095H   SFRSYM    DATA     BYTE      SBRLL1
      00000099H   SFRSYM    DATA     BYTE      SBUF0
      00000092H   SFRSYM    DATA     BYTE      SBUF1
      00000098H   SFRSYM    DATA     BYTE      SCON0
      00000098H.5 SFRSYM    DATA     BIT       SCON0_MCE
      00000098H.2 SFRSYM    DATA     BIT       SCON0_RB8
      00000098H.4 SFRSYM    DATA     BIT       SCON0_REN
      00000098H   SFRSYM    DATA     BIT       SCON0_RI
      00000098H.7 SFRSYM    DATA     BIT       SCON0_SMODE
      00000098H.3 SFRSYM    DATA     BIT       SCON0_TB8
      00000098H.1 SFRSYM    DATA     BIT       SCON0_TI
      000000C8H   SFRSYM    DATA     BYTE      SCON1
      000000C8H.7 SFRSYM    DATA     BIT       SCON1_OVR
      000000C8H.6 SFRSYM    DATA     BIT       SCON1_PERR
      000000C8H.2 SFRSYM    DATA     BIT       SCON1_RBX
      000000C8H.4 SFRSYM    DATA     BIT       SCON1_REN
      000000C8H   SFRSYM    DATA     BIT       SCON1_RI
      000000C8H.3 SFRSYM    DATA     BIT       SCON1_TBX
      000000C8H.1 SFRSYM    DATA     BIT       SCON1_TI
      000000A7H   SFRSYM    DATA     BYTE      SFRPAGE
      000000BCH   SFRSYM    DATA     BYTE      SFRPGCN
      000000D7H   SFRSYM    DATA     BYTE      SFRSTACK
      000000D6H   SFRSYM    DATA     BYTE      SMB0ADM
      000000D7H   SFRSYM    DATA     BYTE      SMB0ADR
      000000C1H   SFRSYM    DATA     BYTE      SMB0CF
      000000C0H   SFRSYM    DATA     BYTE      SMB0CN0
      000000C0H.1 SFRSYM    DATA     BIT       SMB0CN0_ACK
      000000C0H.3 SFRSYM    DATA     BIT       SMB0CN0_ACKRQ
      000000C0H.2 SFRSYM    DATA     BIT       SMB0CN0_ARBLOST
      000000C0H.7 SFRSYM    DATA     BIT       SMB0CN0_MASTER
      000000C0H   SFRSYM    DATA     BIT       SMB0CN0_SI
LX51 LINKER/LOCATER V4.66.30.0                                                        04/24/2017  21:26:22  PAGE 96


      000000C0H.5 SFRSYM    DATA     BIT       SMB0CN0_STA
      000000C0H.4 SFRSYM    DATA     BIT       SMB0CN0_STO
      000000C0H.6 SFRSYM    DATA     BIT       SMB0CN0_TXMODE
      000000C2H   SFRSYM    DATA     BYTE      SMB0DAT
      000000C3H   SFRSYM    DATA     BYTE      SMB0FCN0
      000000C4H   SFRSYM    DATA     BYTE      SMB0FCN1
      000000EFH   SFRSYM    DATA     BYTE      SMB0FCT
      000000C5H   SFRSYM    DATA     BYTE      SMB0RXLN
      000000ACH   SFRSYM    DATA     BYTE      SMB0TC
      00000093H   SFRSYM    DATA     BYTE      SMOD1
      00000081H   SFRSYM    DATA     BYTE      SP
      000000A1H   SFRSYM    DATA     BYTE      SPI0CFG
      000000A2H   SFRSYM    DATA     BYTE      SPI0CKR
      000000F8H   SFRSYM    DATA     BYTE      SPI0CN0
      000000F8H.5 SFRSYM    DATA     BIT       SPI0CN0_MODF
      000000F8H.2 SFRSYM    DATA     BIT       SPI0CN0_NSSMD0
      000000F8H.3 SFRSYM    DATA     BIT       SPI0CN0_NSSMD1
      000000F8H.4 SFRSYM    DATA     BIT       SPI0CN0_RXOVRN
      000000F8H   SFRSYM    DATA     BIT       SPI0CN0_SPIEN
      000000F8H.7 SFRSYM    DATA     BIT       SPI0CN0_SPIF
      000000F8H.1 SFRSYM    DATA     BIT       SPI0CN0_TXNF
      000000F8H.6 SFRSYM    DATA     BIT       SPI0CN0_WCOL
      000000A3H   SFRSYM    DATA     BYTE      SPI0DAT
      0000009AH   SFRSYM    DATA     BYTE      SPI0FCN0
      0000009BH   SFRSYM    DATA     BYTE      SPI0FCN1
      000000F7H   SFRSYM    DATA     BYTE      SPI0FCT
      000000DFH   SFRSYM    DATA     BYTE      SPI0PCF
      00000088H   SFRSYM    DATA     BYTE      TCON
      00000088H.1 SFRSYM    DATA     BIT       TCON_IE0
      00000088H.3 SFRSYM    DATA     BIT       TCON_IE1
      00000088H   SFRSYM    DATA     BIT       TCON_IT0
      00000088H.2 SFRSYM    DATA     BIT       TCON_IT1
      00000088H.5 SFRSYM    DATA     BIT       TCON_TF0
      00000088H.7 SFRSYM    DATA     BIT       TCON_TF1
      00000088H.4 SFRSYM    DATA     BIT       TCON_TR0
      00000088H.6 SFRSYM    DATA     BIT       TCON_TR1
      0000008CH   SFRSYM    DATA     BYTE      TH0
      0000008DH   SFRSYM    DATA     BYTE      TH1
      0000008AH   SFRSYM    DATA     BYTE      TL0
      0000008BH   SFRSYM    DATA     BYTE      TL1
      00000089H   SFRSYM    DATA     BYTE      TMOD
      000000CEH   SFRSYM    DATA     WORD      TMR2
      000000C8H   SFRSYM    DATA     BYTE      TMR2CN0
      000000C8H.3 SFRSYM    DATA     BIT       TMR2CN0_T2SPLIT
      000000C8H   SFRSYM    DATA     BIT       TMR2CN0_T2XCLK0
      000000C8H.1 SFRSYM    DATA     BIT       TMR2CN0_T2XCLK1
      000000C8H.4 SFRSYM    DATA     BIT       TMR2CN0_TF2CEN
      000000C8H.7 SFRSYM    DATA     BIT       TMR2CN0_TF2H
      000000C8H.6 SFRSYM    DATA     BIT       TMR2CN0_TF2L
      000000C8H.5 SFRSYM    DATA     BIT       TMR2CN0_TF2LEN
      000000C8H.2 SFRSYM    DATA     BIT       TMR2CN0_TR2
      000000FDH   SFRSYM    DATA     BYTE      TMR2CN1
      000000CFH   SFRSYM    DATA     BYTE      TMR2H
      000000CEH   SFRSYM    DATA     BYTE      TMR2L
      000000CAH   SFRSYM    DATA     WORD      TMR2RL
      000000CBH   SFRSYM    DATA     BYTE      TMR2RLH
      000000CAH   SFRSYM    DATA     BYTE      TMR2RLL
      00000094H   SFRSYM    DATA     WORD      TMR3
      00000091H   SFRSYM    DATA     BYTE      TMR3CN0
      000000FEH   SFRSYM    DATA     BYTE      TMR3CN1
      00000095H   SFRSYM    DATA     BYTE      TMR3H
      00000094H   SFRSYM    DATA     BYTE      TMR3L
LX51 LINKER/LOCATER V4.66.30.0                                                        04/24/2017  21:26:22  PAGE 97


      00000092H   SFRSYM    DATA     WORD      TMR3RL
      00000093H   SFRSYM    DATA     BYTE      TMR3RLH
      00000092H   SFRSYM    DATA     BYTE      TMR3RLL
      000000A4H   SFRSYM    DATA     WORD      TMR4
      00000098H   SFRSYM    DATA     BYTE      TMR4CN0
      00000098H.3 SFRSYM    DATA     BIT       TMR4CN0_T4SPLIT
      00000098H   SFRSYM    DATA     BIT       TMR4CN0_T4XCLK0
      00000098H.1 SFRSYM    DATA     BIT       TMR4CN0_T4XCLK1
      00000098H.4 SFRSYM    DATA     BIT       TMR4CN0_TF4CEN
      00000098H.7 SFRSYM    DATA     BIT       TMR4CN0_TF4H
      00000098H.6 SFRSYM    DATA     BIT       TMR4CN0_TF4L
      00000098H.5 SFRSYM    DATA     BIT       TMR4CN0_TF4LEN
      00000098H.2 SFRSYM    DATA     BIT       TMR4CN0_TR4
      000000FFH   SFRSYM    DATA     BYTE      TMR4CN1
      000000A5H   SFRSYM    DATA     BYTE      TMR4H
      000000A4H   SFRSYM    DATA     BYTE      TMR4L
      000000A2H   SFRSYM    DATA     WORD      TMR4RL
      000000A3H   SFRSYM    DATA     BYTE      TMR4RLH
      000000A2H   SFRSYM    DATA     BYTE      TMR4RLL
      000000D4H   SFRSYM    DATA     WORD      TMR5
      000000C0H   SFRSYM    DATA     BYTE      TMR5CN0
      000000C0H.3 SFRSYM    DATA     BIT       TMR5CN0_T5SPLIT
      000000C0H   SFRSYM    DATA     BIT       TMR5CN0_T5XCLK0
      000000C0H.1 SFRSYM    DATA     BIT       TMR5CN0_T5XCLK1
      000000C0H.4 SFRSYM    DATA     BIT       TMR5CN0_TF5CEN
      000000C0H.7 SFRSYM    DATA     BIT       TMR5CN0_TF5H
      000000C0H.6 SFRSYM    DATA     BIT       TMR5CN0_TF5L
      000000C0H.5 SFRSYM    DATA     BIT       TMR5CN0_TF5LEN
      000000C0H.2 SFRSYM    DATA     BIT       TMR5CN0_TR5
      000000F1H   SFRSYM    DATA     BYTE      TMR5CN1
      000000D5H   SFRSYM    DATA     BYTE      TMR5H
      000000D4H   SFRSYM    DATA     BYTE      TMR5L
      000000D2H   SFRSYM    DATA     WORD      TMR5RL
      000000D3H   SFRSYM    DATA     BYTE      TMR5RLH
      000000D2H   SFRSYM    DATA     BYTE      TMR5RLL
      000000D9H   SFRSYM    DATA     BYTE      UART0PCF
      0000009DH   SFRSYM    DATA     BYTE      UART1FCN0
      000000D8H   SFRSYM    DATA     BYTE      UART1FCN1
      000000D8H.3 SFRSYM    DATA     BIT       UART1FCN1_RFRQ
      000000D8H   SFRSYM    DATA     BIT       UART1FCN1_RIE
      000000D8H.1 SFRSYM    DATA     BIT       UART1FCN1_RXTO0
      000000D8H.2 SFRSYM    DATA     BIT       UART1FCN1_RXTO1
      000000D8H.7 SFRSYM    DATA     BIT       UART1FCN1_TFRQ
      000000D8H.4 SFRSYM    DATA     BIT       UART1FCN1_TIE
      000000D8H.5 SFRSYM    DATA     BIT       UART1FCN1_TXHOLD
      000000D8H.6 SFRSYM    DATA     BIT       UART1FCN1_TXNF
      000000FAH   SFRSYM    DATA     BYTE      UART1FCT
      0000009EH   SFRSYM    DATA     BYTE      UART1LIN
      000000DAH   SFRSYM    DATA     BYTE      UART1PCF
      000000FFH   SFRSYM    DATA     BYTE      VDM0CN
      00000097H   SFRSYM    DATA     BYTE      WDTCN
      000000E1H   SFRSYM    DATA     BYTE      XBR0
      000000E2H   SFRSYM    DATA     BYTE      XBR1
      000000E3H   SFRSYM    DATA     BYTE      XBR2
      00000086H   SFRSYM    DATA     BYTE      XOSC0CN
      0000000AH   SYMBOL    NUMBER   ---       ADC0EOC_IRQN
      00000009H   SYMBOL    NUMBER   ---       ADC0WC_IRQN
      01000304H   SYMBOL    CODE     NEAR LAB  AGAIN
      0100030BH   SYMBOL    CODE     NEAR LAB  AGAIN2
      00000013H   SYMBOL    NUMBER   ---       CL0_IRQN
      0000000CH   SYMBOL    NUMBER   ---       CMP0_IRQN
      0000000DH   SYMBOL    NUMBER   ---       CMP1_IRQN
LX51 LINKER/LOCATER V4.66.30.0                                                        04/24/2017  21:26:22  PAGE 98


      01000309H   SYMBOL    CODE     NEAR LAB  DELAY
      01000300H   SYMBOL    CODE     NEAR LAB  DELAY2
      00000010H   SYMBOL    NUMBER   ---       I2C0_IRQN
      00000000H   SYMBOL    NUMBER   ---       INT0_IRQN
      00000002H   SYMBOL    NUMBER   ---       INT1_IRQN
      00000000H   SYMBOL    NUMBER   ---       LEGACY_PAGE
      01000302H   SYMBOL    CODE     NEAR LAB  NEXT
      0000000BH   SYMBOL    NUMBER   ---       PCA0_IRQN
      00000010H   SYMBOL    NUMBER   ---       PG2_PAGE
      00000020H   SYMBOL    NUMBER   ---       PG3_PAGE
      00000030H   SYMBOL    NUMBER   ---       PG4_PAGE
      00000008H   SYMBOL    NUMBER   ---       PMATCH_IRQN
      00000007H   SYMBOL    NUMBER   ---       SMBUS0_IRQN
      00000006H   SYMBOL    NUMBER   ---       SPI0_IRQN
      00000001H   SYMBOL    NUMBER   ---       TIMER0_IRQN
      00000003H   SYMBOL    NUMBER   ---       TIMER1_IRQN
      00000005H   SYMBOL    NUMBER   ---       TIMER2_IRQN
      0000000EH   SYMBOL    NUMBER   ---       TIMER3_IRQN
      00000011H   SYMBOL    NUMBER   ---       TIMER4_IRQN
      00000012H   SYMBOL    NUMBER   ---       TIMER5_IRQN
      00000004H   SYMBOL    NUMBER   ---       UART0_IRQN
      0000000FH   SYMBOL    NUMBER   ---       UART1_IRQN

      01000300H   BLOCK     CODE     NEAR LAB  LVL=0
      01000300H   LINE      CODE     ---       #10
      01000302H   LINE      CODE     ---       #11
      01000304H   LINE      CODE     ---       #12
      01000306H   LINE      CODE     ---       #13
      01000308H   LINE      CODE     ---       #14
      01000309H   LINE      CODE     ---       #17
      0100030BH   LINE      CODE     ---       #18
      0100030EH   LINE      CODE     ---       #19
      01000310H   LINE      CODE     ---       #20
      ---         BLOCKEND  ---      ---       LVL=0

      01001415H   BLOCK     CODE     NEAR LAB  LVL=0
      01001415H   LINE      CODE     ---       #28
      01001417H   LINE      CODE     ---       #29
      01001419H   LINE      CODE     ---       #30
      0100141BH   LINE      CODE     ---       #31
      ---         BLOCKEND  ---      ---       LVL=0

      0100141CH   BLOCK     CODE     NEAR LAB  LVL=0
      0100141CH   LINE      CODE     ---       #39
      0100141EH   LINE      CODE     ---       #40
      01001420H   LINE      CODE     ---       #41
      01001422H   LINE      CODE     ---       #42
      ---         BLOCKEND  ---      ---       LVL=0

      01001423H   BLOCK     CODE     NEAR LAB  LVL=0
      01001423H   LINE      CODE     ---       #50
      01001425H   LINE      CODE     ---       #51
      01001427H   LINE      CODE     ---       #52
      01001429H   LINE      CODE     ---       #53
      ---         BLOCKEND  ---      ---       LVL=0

      0100142AH   BLOCK     CODE     NEAR LAB  LVL=0
      0100142AH   LINE      CODE     ---       #61
      0100142CH   LINE      CODE     ---       #62
      0100142EH   LINE      CODE     ---       #63
      01001430H   LINE      CODE     ---       #64
      ---         BLOCKEND  ---      ---       LVL=0
LX51 LINKER/LOCATER V4.66.30.0                                                        04/24/2017  21:26:22  PAGE 99



      010011F7H   BLOCK     CODE     NEAR LAB  LVL=0
      010011F7H   LINE      CODE     ---       #71
      010011FAH   LINE      CODE     ---       #72
      010011FDH   LINE      CODE     ---       #73
      01001200H   LINE      CODE     ---       #74
      01001203H   LINE      CODE     ---       #75
      01001206H   LINE      CODE     ---       #76
      01001209H   LINE      CODE     ---       #77
      0100120CH   LINE      CODE     ---       #78
      0100120FH   LINE      CODE     ---       #79
      01001212H   LINE      CODE     ---       #80
      01001215H   LINE      CODE     ---       #81
      01001218H   LINE      CODE     ---       #82
      0100121BH   LINE      CODE     ---       #83
      0100121EH   LINE      CODE     ---       #84
      01001221H   LINE      CODE     ---       #85
      01001224H   LINE      CODE     ---       #86
      01001227H   LINE      CODE     ---       #87
      ---         BLOCKEND  ---      ---       LVL=0

      ---         MODULE    ---      ---       MAIN
      0100139EH   PUBLIC    CODE     ---       main
      000000A2H   SFRSYM    DATA     BYTE      SPI0CKR
      00000080H   SFRSYM    DATA     BYTE      P0
      000000C8H.6 SFRSYM    DATA     BIT       SCON1_PERR
      000000D0H.2 SFRSYM    DATA     BIT       PSW_OV
      00000086H   SFRSYM    DATA     BYTE      XOSC0CN
      00000090H   SFRSYM    DATA     BYTE      P1
      000000F8H.1 SFRSYM    DATA     BIT       SPI0CN0_TXNF
      00000097H   SFRSYM    DATA     BYTE      WDTCN
      000000A0H   SFRSYM    DATA     BYTE      P2
      000000B0H   SFRSYM    DATA     BYTE      P3
      000000C0H.7 SFRSYM    DATA     BIT       SMB0CN0_MASTER
      000000F9H   SFRSYM    DATA     WORD      PCA0
      000000E6H   SFRSYM    DATA     BYTE      EIE1
      000000C0H.1 SFRSYM    DATA     BIT       SMB0CN0_ACK
      000000E8H.1 SFRSYM    DATA     BIT       CLIF0_C0RIF
      000000F3H   SFRSYM    DATA     BYTE      EIE2
      000000E8H.3 SFRSYM    DATA     BIT       CLIF0_C1RIF
      000000E8H.5 SFRSYM    DATA     BIT       CLIF0_C2RIF
      0000008FH   SFRSYM    DATA     BYTE      PSCTL
      00000080H.2 SFRSYM    DATA     BIT       BSP_PB0
      000000E8H.7 SFRSYM    DATA     BIT       CLIF0_C3RIF
      000000E4H   SFRSYM    DATA     BYTE      IT01CF
      00000080H.3 SFRSYM    DATA     BIT       BSP_PB1
      000000C0H.6 SFRSYM    DATA     BIT       SMB0CN0_TXMODE
      000000ADH   SFRSYM    DATA     BYTE      DERIVID
      000000A7H   SFRSYM    DATA     BYTE      SFRPAGE
      000000A4H   SFRSYM    DATA     BYTE      P0MDOUT
      000000A5H   SFRSYM    DATA     BYTE      P1MDOUT
      000000E8H.5 SFRSYM    DATA     BIT       ADC0CN0_ADINT
      000000CBH   SFRSYM    DATA     BYTE      TMR2RLH
      000000A6H   SFRSYM    DATA     BYTE      P2MDOUT
      000000A8H   SFRSYM    DATA     BYTE      IE
      00000093H   SFRSYM    DATA     BYTE      TMR3RLH
      0000009CH   SFRSYM    DATA     BYTE      P3MDOUT
      000000A3H   SFRSYM    DATA     BYTE      TMR4RLH
      000000BBH   SFRSYM    DATA     BYTE      EIP1
      000000D3H   SFRSYM    DATA     BYTE      TMR5RLH
      000000EDH   SFRSYM    DATA     BYTE      EIP2
      00000098H.2 SFRSYM    DATA     BIT       SCON0_RB8
LX51 LINKER/LOCATER V4.66.30.0                                                        04/24/2017  21:26:22  PAGE 100


      000000CAH   SFRSYM    DATA     BYTE      TMR2RLL
      000000FCH   SFRSYM    DATA     BYTE      PCA0CPH0
      00000092H   SFRSYM    DATA     BYTE      TMR3RLL
      000000EAH   SFRSYM    DATA     BYTE      PCA0CPH1
      00000098H.3 SFRSYM    DATA     BIT       SCON0_TB8
      000000F0H   SFRSYM    DATA     BIT       B_B0
      00000082H   SFRSYM    DATA     WORD      DP
      000000A2H   SFRSYM    DATA     BYTE      TMR4RLL
      000000ECH   SFRSYM    DATA     BYTE      PCA0CPH2
      000000F0H.1 SFRSYM    DATA     BIT       B_B1
      000000C3H   SFRSYM    DATA     WORD      ADC0GT
      000000D2H   SFRSYM    DATA     BYTE      TMR5RLL
      000000F5H   SFRSYM    DATA     BYTE      PCA0CPH3
      000000BDH   SFRSYM    DATA     BYTE      I2C0SLAD
      000000D8H.3 SFRSYM    DATA     BIT       UART1FCN1_RFRQ
      000000F0H.2 SFRSYM    DATA     BIT       B_B2
      000000BCH   SFRSYM    DATA     BYTE      SFRPGCN
      000000FBH   SFRSYM    DATA     BYTE      PCA0CPL0
      00000085H   SFRSYM    DATA     BYTE      PCA0CPH4
      000000F0H.3 SFRSYM    DATA     BIT       B_B3
      000000D9H   SFRSYM    DATA     BYTE      PCA0MD
      000000DAH   SFRSYM    DATA     BYTE      PCA0CPM0
      000000E9H   SFRSYM    DATA     BYTE      PCA0CPL1
      000000DEH   SFRSYM    DATA     BYTE      PCA0CPH5
      000000D8H.7 SFRSYM    DATA     BIT       UART1FCN1_TFRQ
      000000F0H.4 SFRSYM    DATA     BIT       B_B4
      000000DBH   SFRSYM    DATA     BYTE      PCA0CPM1
      000000EBH   SFRSYM    DATA     BYTE      PCA0CPL2
      000000A1H   SFRSYM    DATA     BYTE      ADC0ASCF
      000000B6H   SFRSYM    DATA     BYTE      ADC0ASAH
      000000F0H.5 SFRSYM    DATA     BIT       B_B5
      000000E8H.6 SFRSYM    DATA     BIT       ADC0CN0_IPOEN
      000000E8H   SFRSYM    DATA     BIT       ADC0CN0_TEMPE
      000000DCH   SFRSYM    DATA     BYTE      PCA0CPM2
      000000F4H   SFRSYM    DATA     BYTE      PCA0CPL3
      000000B8H   SFRSYM    DATA     BYTE      IP
      000000F0H.6 SFRSYM    DATA     BIT       B_B6
      000000C5H   SFRSYM    DATA     WORD      ADC0LT
      000000AEH   SFRSYM    DATA     BYTE      PCA0CPM3
      00000084H   SFRSYM    DATA     BYTE      PCA0CPL4
      000000D8H.6 SFRSYM    DATA     BIT       UART1FCN1_TXNF
      00000098H.5 SFRSYM    DATA     BIT       SCON0_MCE
      000000F0H.7 SFRSYM    DATA     BIT       B_B7
      000000AFH   SFRSYM    DATA     BYTE      PCA0CPM4
      000000DDH   SFRSYM    DATA     BYTE      PCA0CPL5
      000000C3H   SFRSYM    DATA     BYTE      SMB0FCN0
      000000CCH   SFRSYM    DATA     BYTE      PCA0CPM5
      000000B5H   SFRSYM    DATA     BYTE      ADC0ASAL
      000000E1H   SFRSYM    DATA     BYTE      XBR0
      000000C4H   SFRSYM    DATA     BYTE      SMB0FCN1
      000000C1H   SFRSYM    DATA     BYTE      SMB0CF
      000000E2H   SFRSYM    DATA     BYTE      XBR1
      000000C1H   SFRSYM    DATA     BYTE      PFE0CN
      000000E7H   SFRSYM    DATA     BYTE      EMI0CN
      000000C0H.5 SFRSYM    DATA     BIT       SMB0CN0_STA
      000000E3H   SFRSYM    DATA     BYTE      XBR2
      000000B1H   SFRSYM    DATA     BYTE      CLU0CF
      000000BBH   SFRSYM    DATA     BYTE      ADC0MX
      000000E0H   SFRSYM    DATA     BIT       ACC_ACC0
      000000D1H   SFRSYM    DATA     BYTE      REF0CN
      000000B3H   SFRSYM    DATA     BYTE      CLU1CF
      0000008EH   SFRSYM    DATA     BYTE      CKCON0
LX51 LINKER/LOCATER V4.66.30.0                                                        04/24/2017  21:26:22  PAGE 101


      000000E0H.1 SFRSYM    DATA     BIT       ACC_ACC1
      000000C9H   SFRSYM    DATA     BYTE      REG0CN
      000000CAH   SFRSYM    DATA     BYTE      CRC0IN
      000000B6H   SFRSYM    DATA     BYTE      CLU2CF
      000000A6H   SFRSYM    DATA     BYTE      CKCON1
      000000C8H.2 SFRSYM    DATA     BIT       TMR2CN0_TR2
      000000E0H.2 SFRSYM    DATA     BIT       ACC_ACC2
      000000BFH   SFRSYM    DATA     BYTE      CLU3CF
      000000E0H.3 SFRSYM    DATA     BIT       ACC_ACC3
      00000081H   SFRSYM    DATA     BYTE      SP
      0000009DH   SFRSYM    DATA     BYTE      CMP0MD
      000000E0H.4 SFRSYM    DATA     BIT       ACC_ACC4
      000000B1H   SFRSYM    DATA     BYTE      LFO0CN
      000000ABH   SFRSYM    DATA     BYTE      CMP1MD
      000000D8H   SFRSYM    DATA     BIT       PCA0CN0_CCF0
      000000E0H.5 SFRSYM    DATA     BIT       ACC_ACC5
      00000098H.2 SFRSYM    DATA     BIT       TMR4CN0_TR4
      000000D8H.1 SFRSYM    DATA     BIT       PCA0CN0_CCF1
      000000E0H.6 SFRSYM    DATA     BIT       ACC_ACC6
      000000CEH   SFRSYM    DATA     WORD      TMR2
      0000009AH   SFRSYM    DATA     BYTE      SPI0FCN0
      000000C7H   SFRSYM    DATA     BYTE      ADC0ASCT
      000000D8H.2 SFRSYM    DATA     BIT       PCA0CN0_CCF2
      000000E0H.7 SFRSYM    DATA     BIT       ACC_ACC7
      00000094H   SFRSYM    DATA     WORD      TMR3
      0000009BH   SFRSYM    DATA     BYTE      SPI0FCN1
      000000C0H.2 SFRSYM    DATA     BIT       TMR5CN0_TR5
      000000D8H.3 SFRSYM    DATA     BIT       PCA0CN0_CCF3
      000000A4H   SFRSYM    DATA     WORD      TMR4
      00000094H   SFRSYM    DATA     BYTE      SBCON1
      000000D8H.4 SFRSYM    DATA     BIT       PCA0CN0_CCF4
      000000D4H   SFRSYM    DATA     WORD      TMR5
      000000C0H.3 SFRSYM    DATA     BIT       SMB0CN0_ACKRQ
      000000D8H.5 SFRSYM    DATA     BIT       PCA0CN0_CCF5
      000000FFH   SFRSYM    DATA     BYTE      VDM0CN
      000000F1H   SFRSYM    DATA     BYTE      P0MDIN
      000000AFH   SFRSYM    DATA     BYTE      CLU0FN
      00000098H.4 SFRSYM    DATA     BIT       SCON0_REN
      000000ACH   SFRSYM    DATA     BYTE      SMB0TC
      000000F2H   SFRSYM    DATA     BYTE      P1MDIN
      000000B2H   SFRSYM    DATA     BYTE      CLU1FN
      000000C8H.4 SFRSYM    DATA     BIT       SCON1_REN
      000000F3H   SFRSYM    DATA     BYTE      P2MDIN
      000000B5H   SFRSYM    DATA     BYTE      CLU2FN
      000000C0H.4 SFRSYM    DATA     BIT       SMB0CN0_STO
      000000F4H   SFRSYM    DATA     BYTE      P3MDIN
      000000B9H   SFRSYM    DATA     BYTE      I2C0STAT
      000000BBH   SFRSYM    DATA     BYTE      I2C0DOUT
      000000BEH   SFRSYM    DATA     BYTE      CLU3FN
      00000096H   SFRSYM    DATA     BYTE      SBRLH1
      000000FEH   SFRSYM    DATA     BYTE      P0MASK
      000000D8H.5 SFRSYM    DATA     BIT       UART1FCN1_TXHOLD
      000000EEH   SFRSYM    DATA     BYTE      P1MASK
      000000FCH   SFRSYM    DATA     BYTE      P2MASK
      000000D0H.3 SFRSYM    DATA     BIT       PSW_RS0
      000000D8H.7 SFRSYM    DATA     BIT       PCA0CN0_CF
      0000009EH   SFRSYM    DATA     BYTE      PCA0CENT
      000000BAH   SFRSYM    DATA     BYTE      I2C0CN0
      000000D2H   SFRSYM    DATA     BYTE      CRC0ST
      000000F8H.4 SFRSYM    DATA     BIT       SPI0CN0_RXOVRN
      000000D0H.4 SFRSYM    DATA     BIT       PSW_RS1
      00000095H   SFRSYM    DATA     BYTE      SBRLL1
LX51 LINKER/LOCATER V4.66.30.0                                                        04/24/2017  21:26:22  PAGE 102


      000000C8H.2 SFRSYM    DATA     BIT       SCON1_RBX
      00000091H   SFRSYM    DATA     BYTE      DAC0CF0
      000000BCH   SFRSYM    DATA     BYTE      ADC0CF0
      000000C8H   SFRSYM    DATA     BIT       TMR2CN0_T2XCLK0
      00000093H   SFRSYM    DATA     BYTE      DAC1CF0
      00000092H   SFRSYM    DATA     BYTE      DAC0CF1
      000000B9H   SFRSYM    DATA     BYTE      ADC0CF1
      000000C8H.1 SFRSYM    DATA     BIT       TMR2CN0_T2XCLK1
      000000C8H.3 SFRSYM    DATA     BIT       SCON1_TBX
      000000E8H.7 SFRSYM    DATA     BIT       ADC0CN0_ADEN
      00000089H   SFRSYM    DATA     BYTE      TMOD
      00000088H   SFRSYM    DATA     BYTE      TCON
      00000095H   SFRSYM    DATA     BYTE      DAC2CF0
      00000094H   SFRSYM    DATA     BYTE      DAC1CF1
      000000DFH   SFRSYM    DATA     BYTE      ADC0CF2
      0000009AH   SFRSYM    DATA     BYTE      DAC3CF0
      00000096H   SFRSYM    DATA     BYTE      DAC2CF1
      000000CFH   SFRSYM    DATA     BYTE      CRC0FLIP
      000000D0H   SFRSYM    DATA     BIT       PSW_PARITY
      000000A8H.4 SFRSYM    DATA     BIT       IE_ES0
      0000009CH   SFRSYM    DATA     BYTE      DAC3CF1
      0000009FH   SFRSYM    DATA     BYTE      CMP0MX
      00000098H   SFRSYM    DATA     BIT       TMR4CN0_T4XCLK0
      000000A8H.1 SFRSYM    DATA     BIT       IE_ET0
      000000AAH   SFRSYM    DATA     BYTE      CMP1MX
      00000098H.1 SFRSYM    DATA     BIT       TMR4CN0_T4XCLK1
      000000A8H.3 SFRSYM    DATA     BIT       IE_ET1
      000000D4H   SFRSYM    DATA     BYTE      P0SKIP
      000000D1H   SFRSYM    DATA     BYTE      CLOUT0
      00000090H.7 SFRSYM    DATA     BIT       BSP_JOYSTICK
      000000D8H   SFRSYM    DATA     BIT       UART1FCN1_RIE
      000000C0H   SFRSYM    DATA     BIT       TMR5CN0_T5XCLK0
      000000A8H.5 SFRSYM    DATA     BIT       IE_ET2
      00000088H   SFRSYM    DATA     BIT       DACGCF0_D1SRC0
      000000D5H   SFRSYM    DATA     BYTE      P1SKIP
      000000C0H.1 SFRSYM    DATA     BIT       TMR5CN0_T5XCLK1
      00000088H.1 SFRSYM    DATA     BIT       DACGCF0_D1SRC1
      000000CCH   SFRSYM    DATA     BYTE      P2SKIP
      00000084H   SFRSYM    DATA     BYTE      CLU0MX
      000000E8H   SFRSYM    DATA     BYTE      ADC0CN0
      000000D8H.4 SFRSYM    DATA     BIT       UART1FCN1_TIE
      000000A8H   SFRSYM    DATA     BIT       IE_EX0
      00000088H.4 SFRSYM    DATA     BIT       DACGCF0_D3SRC0
      00000085H   SFRSYM    DATA     BYTE      CLU1MX
      000000B2H   SFRSYM    DATA     BYTE      ADC0CN1
      000000D8H.6 SFRSYM    DATA     BIT       PCA0CN0_CR
      000000A8H.2 SFRSYM    DATA     BIT       IE_EX1
      00000088H.5 SFRSYM    DATA     BIT       DACGCF0_D3SRC1
      00000091H   SFRSYM    DATA     BYTE      CLU2MX
      000000B3H   SFRSYM    DATA     BYTE      ADC0CN2
      00000090H.5 SFRSYM    DATA     BIT       BSP_LED_B
      000000C8H.7 SFRSYM    DATA     BIT       SCON1_OVR
      000000AAH   SFRSYM    DATA     BYTE      PSTAT0
      000000AEH   SFRSYM    DATA     BYTE      CLU3MX
      000000A0H.2 SFRSYM    DATA     BIT       BSP_BC_EN
      00000098H.7 SFRSYM    DATA     BIT       SCON0_SMODE
      000000B5H   SFRSYM    DATA     BYTE      DEVICEID
      000000A9H   SFRSYM    DATA     BYTE      CLKSEL
      000000F8H   SFRSYM    DATA     BIT       SPI0CN0_SPIEN
      00000085H   SFRSYM    DATA     BYTE      DAC0H
      000000F0H   SFRSYM    DATA     BYTE      B
      000000BEH   SFRSYM    DATA     BYTE      ADC0H
LX51 LINKER/LOCATER V4.66.30.0                                                        04/24/2017  21:26:22  PAGE 103


      000000FFH   SFRSYM    DATA     BYTE      I2C0ADM
      0000008AH   SFRSYM    DATA     BYTE      DAC1H
      00000090H.4 SFRSYM    DATA     BIT       BSP_LED_G
      00000088H.2 SFRSYM    DATA     BIT       DACGCF0_D1AMEN
      0000008CH   SFRSYM    DATA     BYTE      DAC2H
      0000008EH   SFRSYM    DATA     BYTE      DAC3H
      00000088H.6 SFRSYM    DATA     BIT       DACGCF0_D3AMEN
      000000CAH   SFRSYM    DATA     WORD      TMR2RL
      00000084H   SFRSYM    DATA     BYTE      DAC0L
      000000BDH   SFRSYM    DATA     BYTE      ADC0L
      00000092H   SFRSYM    DATA     WORD      TMR3RL
      00000089H   SFRSYM    DATA     BYTE      DAC1L
      000000A2H   SFRSYM    DATA     WORD      TMR4RL
      000000D8H   SFRSYM    DATA     BYTE      PCA0CN0
      0000008BH   SFRSYM    DATA     BYTE      DAC2L
      000000E0H   SFRSYM    DATA     BYTE      ACC
      000000D2H   SFRSYM    DATA     WORD      TMR5RL
      000000D9H   SFRSYM    DATA     BYTE      UART0PCF
      0000008DH   SFRSYM    DATA     BYTE      DAC3L
      000000FBH   SFRSYM    DATA     WORD      PCA0CP0
      000000DAH   SFRSYM    DATA     BYTE      UART1PCF
      000000E9H   SFRSYM    DATA     WORD      PCA0CP1
      00000088H   SFRSYM    DATA     BYTE      DACGCF0
      000000EBH   SFRSYM    DATA     WORD      PCA0CP2
      000000BCH   SFRSYM    DATA     BYTE      I2C0DIN
      00000098H   SFRSYM    DATA     BYTE      DACGCF1
      000000CEH   SFRSYM    DATA     BYTE      CRC0CN0
      000000F4H   SFRSYM    DATA     WORD      PCA0CP3
      0000008CH   SFRSYM    DATA     BYTE      TH0
      000000A2H   SFRSYM    DATA     BYTE      DACGCF2
      00000086H   SFRSYM    DATA     BYTE      CRC0CN1
      000000B8H.4 SFRSYM    DATA     BIT       IP_PS0
      00000084H   SFRSYM    DATA     WORD      PCA0CP4
      000000FAH   SFRSYM    DATA     BYTE      UART1FCT
      0000008DH   SFRSYM    DATA     BYTE      TH1
      000000FAH   SFRSYM    DATA     BYTE      PCA0H
      000000F5H   SFRSYM    DATA     BYTE      I2C0FCT
      00000090H.6 SFRSYM    DATA     BIT       BSP_LED_R
      000000B8H.1 SFRSYM    DATA     BIT       IP_PT0
      000000DDH   SFRSYM    DATA     WORD      PCA0CP5
      000000C7H   SFRSYM    DATA     BYTE      CLIE0
      000000B8H.3 SFRSYM    DATA     BIT       IP_PT1
      00000088H.3 SFRSYM    DATA     BIT       DACGCF0_D01REFSL
      000000B5H   SFRSYM    DATA     WORD      ADC0ASA
      000000E8H   SFRSYM    DATA     BYTE      CLIF0
      000000C0H.2 SFRSYM    DATA     BIT       SMB0CN0_ARBLOST
      000000B8H.5 SFRSYM    DATA     BIT       IP_PT2
      0000008AH   SFRSYM    DATA     BYTE      TL0
      000000D0H.5 SFRSYM    DATA     BIT       PSW_F0
      000000A8H.6 SFRSYM    DATA     BIT       IE_ESPI0
      0000008BH   SFRSYM    DATA     BYTE      TL1
      000000F9H   SFRSYM    DATA     BYTE      PCA0L
      000000C0H   SFRSYM    DATA     BIT       SMB0CN0_SI
      000000D0H.1 SFRSYM    DATA     BIT       PSW_F1
      00000080H   SFRSYM    DATA     BIT       P0_B0
      000000B8H   SFRSYM    DATA     BIT       IP_PX0
      00000090H   SFRSYM    DATA     BIT       P1_B0
      00000080H.1 SFRSYM    DATA     BIT       P0_B1
      000000B8H.2 SFRSYM    DATA     BIT       IP_PX1
      00000088H.7 SFRSYM    DATA     BIT       DACGCF0_D23REFSL
      0000009EH   SFRSYM    DATA     BYTE      UART1LIN
      0000009BH   SFRSYM    DATA     BYTE      CMP0CN0
LX51 LINKER/LOCATER V4.66.30.0                                                        04/24/2017  21:26:22  PAGE 104


      000000C6H   SFRSYM    DATA     BYTE      CLEN0
      00000088H.1 SFRSYM    DATA     BIT       TCON_IE0
      000000A0H   SFRSYM    DATA     BIT       P2_B0
      00000090H.1 SFRSYM    DATA     BIT       P1_B1
      00000080H.2 SFRSYM    DATA     BIT       P0_B2
      000000BFH   SFRSYM    DATA     BYTE      CMP1CN0
      00000099H   SFRSYM    DATA     BYTE      CMP0CN1
      00000088H.3 SFRSYM    DATA     BIT       TCON_IE1
      000000B0H   SFRSYM    DATA     BIT       P3_B0
      000000A0H.1 SFRSYM    DATA     BIT       P2_B1
      00000090H.2 SFRSYM    DATA     BIT       P1_B2
      00000080H.3 SFRSYM    DATA     BIT       P0_B3
      000000C0H   SFRSYM    DATA     BYTE      SMB0CN0
      000000ACH   SFRSYM    DATA     BYTE      CMP1CN1
      000000B0H.1 SFRSYM    DATA     BIT       P3_B1
      000000A0H.2 SFRSYM    DATA     BIT       P2_B2
      00000090H.3 SFRSYM    DATA     BIT       P1_B3
      00000080H.4 SFRSYM    DATA     BIT       P0_B4
      000000B0H.2 SFRSYM    DATA     BIT       P3_B2
      000000A0H.3 SFRSYM    DATA     BIT       P2_B3
      00000090H.4 SFRSYM    DATA     BIT       P1_B4
      00000080H.5 SFRSYM    DATA     BIT       P0_B5
      00000098H   SFRSYM    DATA     BIT       DACGCF1_D0UDIS
      000000D8H.1 SFRSYM    DATA     BIT       UART1FCN1_RXTO0
      000000B0H.3 SFRSYM    DATA     BIT       P3_B3
      000000A0H.4 SFRSYM    DATA     BIT       P2_B4
      00000090H.5 SFRSYM    DATA     BIT       P1_B5
      00000080H.6 SFRSYM    DATA     BIT       P0_B6
      00000098H.1 SFRSYM    DATA     BIT       DACGCF1_D1UDIS
      000000EEH   SFRSYM    DATA     BYTE      EIP1H
      000000D8H.2 SFRSYM    DATA     BIT       UART1FCN1_RXTO1
      000000B0H.4 SFRSYM    DATA     BIT       P3_B4
      000000A0H.5 SFRSYM    DATA     BIT       P2_B5
      00000090H.6 SFRSYM    DATA     BIT       P1_B6
      00000080H.7 SFRSYM    DATA     BIT       P0_B7
      00000098H.2 SFRSYM    DATA     BIT       DACGCF1_D2UDIS
      000000C5H   SFRSYM    DATA     BYTE      SMB0RXLN
      000000F6H   SFRSYM    DATA     BYTE      EIP2H
      000000A0H.6 SFRSYM    DATA     BIT       P2_B6
      00000090H.7 SFRSYM    DATA     BIT       P1_B7
      00000098H.3 SFRSYM    DATA     BIT       DACGCF1_D3UDIS
      000000B0H.7 SFRSYM    DATA     BIT       P3_B7
      00000083H   SFRSYM    DATA     BYTE      DPH
      000000C4H   SFRSYM    DATA     BYTE      ADC0GTH
      000000C8H.7 SFRSYM    DATA     BIT       TMR2CN0_TF2H
      000000C8H.3 SFRSYM    DATA     BIT       TMR2CN0_T2SPLIT
      000000D0H.6 SFRSYM    DATA     BIT       PSW_AC
      000000F8H   SFRSYM    DATA     BYTE      SPI0CN0
      000000C7H   SFRSYM    DATA     BYTE      HFO0CAL
      00000088H.5 SFRSYM    DATA     BIT       TCON_TF0
      00000098H   SFRSYM    DATA     BIT       SCON0_RI
      000000D6H   SFRSYM    DATA     BYTE      HFO1CAL
      00000082H   SFRSYM    DATA     BYTE      DPL
      00000088H.7 SFRSYM    DATA     BIT       TCON_TF1
      000000C8H   SFRSYM    DATA     BIT       SCON1_RI
      00000099H   SFRSYM    DATA     BYTE      SBUF0
      00000087H   SFRSYM    DATA     BYTE      PCON0
      000000F2H   SFRSYM    DATA     BYTE      IPH
      000000C3H   SFRSYM    DATA     BYTE      ADC0GTL
      00000098H.7 SFRSYM    DATA     BIT       TMR4CN0_TF4H
      00000098H.3 SFRSYM    DATA     BIT       TMR4CN0_T4SPLIT
      000000C8H.6 SFRSYM    DATA     BIT       TMR2CN0_TF2L
LX51 LINKER/LOCATER V4.66.30.0                                                        04/24/2017  21:26:22  PAGE 105


      00000098H.1 SFRSYM    DATA     BIT       SCON0_TI
      00000092H   SFRSYM    DATA     BYTE      SBUF1
      000000CDH   SFRSYM    DATA     BYTE      PCON1
      000000C6H   SFRSYM    DATA     BYTE      ADC0LTH
      00000088H   SFRSYM    DATA     BIT       TCON_IT0
      000000C8H.1 SFRSYM    DATA     BIT       SCON1_TI
      000000EFH   SFRSYM    DATA     BYTE      RSTSRC
      000000FDH   SFRSYM    DATA     BYTE      P0MAT
      000000CBH   SFRSYM    DATA     BYTE      CRC0DAT
      000000C0H.7 SFRSYM    DATA     BIT       TMR5CN0_TF5H
      000000C0H.3 SFRSYM    DATA     BIT       TMR5CN0_T5SPLIT
      00000088H.2 SFRSYM    DATA     BIT       TCON_IT1
      000000D7H   SFRSYM    DATA     BYTE      SFRSTACK
      00000098H   SFRSYM    DATA     BYTE      SCON0
      000000F6H   SFRSYM    DATA     BYTE      PRTDRV
      000000EDH   SFRSYM    DATA     BYTE      P1MAT
      000000E8H.3 SFRSYM    DATA     BIT       ADC0CN0_ADWINT
      00000093H   SFRSYM    DATA     BYTE      SMOD1
      000000C8H   SFRSYM    DATA     BYTE      SCON1
      000000FBH   SFRSYM    DATA     BYTE      P2MAT
      00000098H.6 SFRSYM    DATA     BIT       TMR4CN0_TF4L
      000000E8H.4 SFRSYM    DATA     BIT       ADC0CN0_ADBUSY
      000000D6H   SFRSYM    DATA     BYTE      SMB0ADM
      000000C5H   SFRSYM    DATA     BYTE      ADC0LTL
      000000F8H.5 SFRSYM    DATA     BIT       SPI0CN0_MODF
      000000B8H.6 SFRSYM    DATA     BIT       IP_PSPI0
      000000E8H.1 SFRSYM    DATA     BIT       ADC0CN0_ADGN0
      0000009CH   SFRSYM    DATA     BYTE      PCA0CLR
      000000C0H.6 SFRSYM    DATA     BIT       TMR5CN0_TF5L
      000000E8H.2 SFRSYM    DATA     BIT       ADC0CN0_ADGN1
      000000C8H   SFRSYM    DATA     BYTE      TMR2CN0
      00000091H   SFRSYM    DATA     BYTE      TMR3CN0
      000000FDH   SFRSYM    DATA     BYTE      TMR2CN1
      00000098H   SFRSYM    DATA     BYTE      TMR4CN0
      000000FEH   SFRSYM    DATA     BYTE      TMR3CN1
      000000B0H.4 SFRSYM    DATA     BIT       BSP_DISP_EN
      000000C0H   SFRSYM    DATA     BYTE      TMR5CN0
      000000FFH   SFRSYM    DATA     BYTE      TMR4CN1
      000000D7H   SFRSYM    DATA     BYTE      SMB0ADR
      00000088H.4 SFRSYM    DATA     BIT       TCON_TR0
      000000F1H   SFRSYM    DATA     BYTE      TMR5CN1
      000000C8H.4 SFRSYM    DATA     BIT       TMR2CN0_TF2CEN
      00000088H.6 SFRSYM    DATA     BIT       TCON_TR1
      000000C2H   SFRSYM    DATA     BYTE      SMB0DAT
      000000A0H.6 SFRSYM    DATA     BIT       BSP_DISP_CS
      000000CFH   SFRSYM    DATA     BYTE      TMR2H
      000000A1H   SFRSYM    DATA     BYTE      SPI0CFG
      00000095H   SFRSYM    DATA     BYTE      TMR3H
      000000EFH   SFRSYM    DATA     BYTE      HFOCN
      000000D3H   SFRSYM    DATA     BYTE      CRC0CNT
      000000A5H   SFRSYM    DATA     BYTE      TMR4H
      00000098H.4 SFRSYM    DATA     BIT       TMR4CN0_TF4CEN
      000000D5H   SFRSYM    DATA     BYTE      TMR5H
      000000EFH   SFRSYM    DATA     BYTE      SMB0FCT
      00000096H   SFRSYM    DATA     BYTE      PCA0POL
      000000CEH   SFRSYM    DATA     BYTE      TMR2L
      000000C0H.4 SFRSYM    DATA     BIT       TMR5CN0_TF5CEN
      000000F8H.7 SFRSYM    DATA     BIT       SPI0CN0_SPIF
      00000094H   SFRSYM    DATA     BYTE      TMR3L
      000000A8H.7 SFRSYM    DATA     BIT       IE_EA
      000000A4H   SFRSYM    DATA     BYTE      TMR4L
      000000D4H   SFRSYM    DATA     BYTE      TMR5L
LX51 LINKER/LOCATER V4.66.30.0                                                        04/24/2017  21:26:22  PAGE 106


      000000C8H.5 SFRSYM    DATA     BIT       TMR2CN0_TF2LEN
      000000F8H.6 SFRSYM    DATA     BIT       SPI0CN0_WCOL
      000000F8H.2 SFRSYM    DATA     BIT       SPI0CN0_NSSMD0
      000000D0H.7 SFRSYM    DATA     BIT       PSW_CY
      0000009DH   SFRSYM    DATA     BYTE      UART1FCN0
      000000DFH   SFRSYM    DATA     BYTE      SPI0PCF
      000000A3H   SFRSYM    DATA     BYTE      SPI0DAT
      000000ADH   SFRSYM    DATA     BYTE      I2C0FCN0
      000000F8H.3 SFRSYM    DATA     BIT       SPI0CN0_NSSMD1
      000000BDH   SFRSYM    DATA     WORD      ADC0
      000000D8H   SFRSYM    DATA     BYTE      UART1FCN1
      000000ABH   SFRSYM    DATA     BYTE      I2C0FCN1
      000000E8H   SFRSYM    DATA     BIT       CLIF0_C0FIF
      00000098H.5 SFRSYM    DATA     BIT       TMR4CN0_TF4LEN
      000000E8H.2 SFRSYM    DATA     BIT       CLIF0_C1FIF
      000000D0H   SFRSYM    DATA     BYTE      PSW
      000000F7H   SFRSYM    DATA     BYTE      PCA0PWM
      000000E8H.4 SFRSYM    DATA     BIT       CLIF0_C2FIF
      000000F7H   SFRSYM    DATA     BYTE      SPI0FCT
      000000B6H   SFRSYM    DATA     BYTE      REVID
      000000C0H.5 SFRSYM    DATA     BIT       TMR5CN0_TF5LEN
      000000E8H.6 SFRSYM    DATA     BIT       CLIF0_C3FIF
      000000B7H   SFRSYM    DATA     BYTE      FLKEY

      0100139EH   BLOCK     CODE     ---       LVL=0
      0100139EH   LINE      CODE     ---       #21
      0100139EH   LINE      CODE     ---       #22
      0100139EH   LINE      CODE     ---       #23
      010013A1H   LINE      CODE     ---       #26
      010013A4H   LINE      CODE     ---       #29
      010013A6H   LINE      CODE     ---       #31
      010013A9H   LINE      CODE     ---       #32
      010013ACH   LINE      CODE     ---       #35
      ---         BLOCKEND  ---      ---       LVL=0

      ---         MODULE    ---      ---       VOLTMETER
      02000034H   PUBLIC    XDATA    ---       southeast_bits
      00000016H   PUBLIC    DATA     BYTE      resetopt
      02000032H   PUBLIC    XDATA    ---       northeast_bits
      0000000FH   PUBLIC    DATA     ---       timeStr
      0000000EH   PUBLIC    DATA     BYTE      lapcount
      02000030H   PUBLIC    XDATA    ---       west_bits
      0200002EH   PUBLIC    XDATA    ---       south_bits
      0200002CH   PUBLIC    XDATA    ---       east_bits
      0200002AH   PUBLIC    XDATA    ---       north_bits
      00000020H.5 PUBLIC    BIT      BIT       adcInput
      0000000BH   PUBLIC    DATA     BYTE      updateAdcInput
      02000028H   PUBLIC    XDATA    ---       center_bits
      0000000AH   PUBLIC    DATA     BYTE      lapnow
      02000026H   PUBLIC    XDATA    ---       southwest_bits
      02000024H   PUBLIC    XDATA    ---       northwest_bits
      02000014H   PUBLIC    XDATA    ---       Line
      010010A7H   PUBLIC    CODE     ---       Voltmeter_main
      01000C0BH   PUBLIC    CODE     ---       ResetLap
      01001282H   PUBLIC    CODE     ---       NewLap
      01001437H   PUBLIC    CODE     ---       INT0_ISR
      01001431H   PUBLIC    CODE     ---       INT1_ISR
      010012C5H   PUBLIC    CODE     ---       TIMER0_ISR
      0000002BH   PUBLIC    DATA     BYTE      ?_drawScreenText?BYTE
      01000F93H   PUBLIC    CODE     ---       _drawScreenText
      01000E18H   PUBLIC    CODE     ---       _convertMillivoltToVolt
      000000A2H   SFRSYM    DATA     BYTE      SPI0CKR
LX51 LINKER/LOCATER V4.66.30.0                                                        04/24/2017  21:26:22  PAGE 107


      00000080H   SFRSYM    DATA     BYTE      P0
      000000C8H.6 SFRSYM    DATA     BIT       SCON1_PERR
      000000D0H.2 SFRSYM    DATA     BIT       PSW_OV
      00000086H   SFRSYM    DATA     BYTE      XOSC0CN
      00000090H   SFRSYM    DATA     BYTE      P1
      000000F8H.1 SFRSYM    DATA     BIT       SPI0CN0_TXNF
      00000097H   SFRSYM    DATA     BYTE      WDTCN
      000000A0H   SFRSYM    DATA     BYTE      P2
      000000B0H   SFRSYM    DATA     BYTE      P3
      000000C0H.7 SFRSYM    DATA     BIT       SMB0CN0_MASTER
      000000F9H   SFRSYM    DATA     WORD      PCA0
      000000E6H   SFRSYM    DATA     BYTE      EIE1
      000000C0H.1 SFRSYM    DATA     BIT       SMB0CN0_ACK
      000000E8H.1 SFRSYM    DATA     BIT       CLIF0_C0RIF
      000000F3H   SFRSYM    DATA     BYTE      EIE2
      000000E8H.3 SFRSYM    DATA     BIT       CLIF0_C1RIF
      000000E8H.5 SFRSYM    DATA     BIT       CLIF0_C2RIF
      0000008FH   SFRSYM    DATA     BYTE      PSCTL
      00000080H.2 SFRSYM    DATA     BIT       BSP_PB0
      000000E8H.7 SFRSYM    DATA     BIT       CLIF0_C3RIF
      000000E4H   SFRSYM    DATA     BYTE      IT01CF
      00000080H.3 SFRSYM    DATA     BIT       BSP_PB1
      000000C0H.6 SFRSYM    DATA     BIT       SMB0CN0_TXMODE
      000000ADH   SFRSYM    DATA     BYTE      DERIVID
      000000A7H   SFRSYM    DATA     BYTE      SFRPAGE
      000000A4H   SFRSYM    DATA     BYTE      P0MDOUT
      000000A5H   SFRSYM    DATA     BYTE      P1MDOUT
      000000E8H.5 SFRSYM    DATA     BIT       ADC0CN0_ADINT
      000000CBH   SFRSYM    DATA     BYTE      TMR2RLH
      000000A6H   SFRSYM    DATA     BYTE      P2MDOUT
      000000A8H   SFRSYM    DATA     BYTE      IE
      00000093H   SFRSYM    DATA     BYTE      TMR3RLH
      0000009CH   SFRSYM    DATA     BYTE      P3MDOUT
      000000A3H   SFRSYM    DATA     BYTE      TMR4RLH
      000000BBH   SFRSYM    DATA     BYTE      EIP1
      000000D3H   SFRSYM    DATA     BYTE      TMR5RLH
      000000EDH   SFRSYM    DATA     BYTE      EIP2
      00000090H.6 SFRSYM    DATA     BIT       LED_RED
      00000098H.2 SFRSYM    DATA     BIT       SCON0_RB8
      000000CAH   SFRSYM    DATA     BYTE      TMR2RLL
      000000FCH   SFRSYM    DATA     BYTE      PCA0CPH0
      00000092H   SFRSYM    DATA     BYTE      TMR3RLL
      000000EAH   SFRSYM    DATA     BYTE      PCA0CPH1
      00000098H.3 SFRSYM    DATA     BIT       SCON0_TB8
      000000F0H   SFRSYM    DATA     BIT       B_B0
      00000082H   SFRSYM    DATA     WORD      DP
      000000A2H   SFRSYM    DATA     BYTE      TMR4RLL
      000000ECH   SFRSYM    DATA     BYTE      PCA0CPH2
      00000080H.2 SFRSYM    DATA     BIT       BTN0
      000000F0H.1 SFRSYM    DATA     BIT       B_B1
      000000C3H   SFRSYM    DATA     WORD      ADC0GT
      000000D2H   SFRSYM    DATA     BYTE      TMR5RLL
      000000F5H   SFRSYM    DATA     BYTE      PCA0CPH3
      000000BDH   SFRSYM    DATA     BYTE      I2C0SLAD
      00000080H.3 SFRSYM    DATA     BIT       BTN1
      000000D8H.3 SFRSYM    DATA     BIT       UART1FCN1_RFRQ
      000000F0H.2 SFRSYM    DATA     BIT       B_B2
      000000BCH   SFRSYM    DATA     BYTE      SFRPGCN
      000000FBH   SFRSYM    DATA     BYTE      PCA0CPL0
      00000085H   SFRSYM    DATA     BYTE      PCA0CPH4
      000000F0H.3 SFRSYM    DATA     BIT       B_B3
      000000D9H   SFRSYM    DATA     BYTE      PCA0MD
LX51 LINKER/LOCATER V4.66.30.0                                                        04/24/2017  21:26:22  PAGE 108


      000000DAH   SFRSYM    DATA     BYTE      PCA0CPM0
      000000E9H   SFRSYM    DATA     BYTE      PCA0CPL1
      000000DEH   SFRSYM    DATA     BYTE      PCA0CPH5
      000000D8H.7 SFRSYM    DATA     BIT       UART1FCN1_TFRQ
      000000F0H.4 SFRSYM    DATA     BIT       B_B4
      000000DBH   SFRSYM    DATA     BYTE      PCA0CPM1
      000000EBH   SFRSYM    DATA     BYTE      PCA0CPL2
      000000A1H   SFRSYM    DATA     BYTE      ADC0ASCF
      000000B6H   SFRSYM    DATA     BYTE      ADC0ASAH
      000000F0H.5 SFRSYM    DATA     BIT       B_B5
      000000E8H.6 SFRSYM    DATA     BIT       ADC0CN0_IPOEN
      000000E8H   SFRSYM    DATA     BIT       ADC0CN0_TEMPE
      000000DCH   SFRSYM    DATA     BYTE      PCA0CPM2
      000000F4H   SFRSYM    DATA     BYTE      PCA0CPL3
      000000B8H   SFRSYM    DATA     BYTE      IP
      000000F0H.6 SFRSYM    DATA     BIT       B_B6
      000000C5H   SFRSYM    DATA     WORD      ADC0LT
      000000AEH   SFRSYM    DATA     BYTE      PCA0CPM3
      00000084H   SFRSYM    DATA     BYTE      PCA0CPL4
      000000D8H.6 SFRSYM    DATA     BIT       UART1FCN1_TXNF
      00000098H.5 SFRSYM    DATA     BIT       SCON0_MCE
      000000F0H.7 SFRSYM    DATA     BIT       B_B7
      000000AFH   SFRSYM    DATA     BYTE      PCA0CPM4
      000000DDH   SFRSYM    DATA     BYTE      PCA0CPL5
      000000C3H   SFRSYM    DATA     BYTE      SMB0FCN0
      000000CCH   SFRSYM    DATA     BYTE      PCA0CPM5
      000000B5H   SFRSYM    DATA     BYTE      ADC0ASAL
      000000E1H   SFRSYM    DATA     BYTE      XBR0
      000000C4H   SFRSYM    DATA     BYTE      SMB0FCN1
      000000C1H   SFRSYM    DATA     BYTE      SMB0CF
      000000E2H   SFRSYM    DATA     BYTE      XBR1
      000000C1H   SFRSYM    DATA     BYTE      PFE0CN
      000000E7H   SFRSYM    DATA     BYTE      EMI0CN
      000000C0H.5 SFRSYM    DATA     BIT       SMB0CN0_STA
      000000E3H   SFRSYM    DATA     BYTE      XBR2
      000000B1H   SFRSYM    DATA     BYTE      CLU0CF
      000000BBH   SFRSYM    DATA     BYTE      ADC0MX
      000000E0H   SFRSYM    DATA     BIT       ACC_ACC0
      000000D1H   SFRSYM    DATA     BYTE      REF0CN
      000000B3H   SFRSYM    DATA     BYTE      CLU1CF
      0000008EH   SFRSYM    DATA     BYTE      CKCON0
      000000E0H.1 SFRSYM    DATA     BIT       ACC_ACC1
      000000C9H   SFRSYM    DATA     BYTE      REG0CN
      000000CAH   SFRSYM    DATA     BYTE      CRC0IN
      000000B6H   SFRSYM    DATA     BYTE      CLU2CF
      000000A6H   SFRSYM    DATA     BYTE      CKCON1
      000000C8H.2 SFRSYM    DATA     BIT       TMR2CN0_TR2
      000000E0H.2 SFRSYM    DATA     BIT       ACC_ACC2
      000000BFH   SFRSYM    DATA     BYTE      CLU3CF
      000000E0H.3 SFRSYM    DATA     BIT       ACC_ACC3
      00000081H   SFRSYM    DATA     BYTE      SP
      0000009DH   SFRSYM    DATA     BYTE      CMP0MD
      000000E0H.4 SFRSYM    DATA     BIT       ACC_ACC4
      000000B1H   SFRSYM    DATA     BYTE      LFO0CN
      000000ABH   SFRSYM    DATA     BYTE      CMP1MD
      000000D8H   SFRSYM    DATA     BIT       PCA0CN0_CCF0
      000000E0H.5 SFRSYM    DATA     BIT       ACC_ACC5
      00000098H.2 SFRSYM    DATA     BIT       TMR4CN0_TR4
      000000D8H.1 SFRSYM    DATA     BIT       PCA0CN0_CCF1
      000000E0H.6 SFRSYM    DATA     BIT       ACC_ACC6
      000000CEH   SFRSYM    DATA     WORD      TMR2
      0000009AH   SFRSYM    DATA     BYTE      SPI0FCN0
LX51 LINKER/LOCATER V4.66.30.0                                                        04/24/2017  21:26:22  PAGE 109


      000000C7H   SFRSYM    DATA     BYTE      ADC0ASCT
      000000D8H.2 SFRSYM    DATA     BIT       PCA0CN0_CCF2
      000000E0H.7 SFRSYM    DATA     BIT       ACC_ACC7
      00000094H   SFRSYM    DATA     WORD      TMR3
      0000009BH   SFRSYM    DATA     BYTE      SPI0FCN1
      000000C0H.2 SFRSYM    DATA     BIT       TMR5CN0_TR5
      000000D8H.3 SFRSYM    DATA     BIT       PCA0CN0_CCF3
      000000A4H   SFRSYM    DATA     WORD      TMR4
      00000094H   SFRSYM    DATA     BYTE      SBCON1
      00000090H.4 SFRSYM    DATA     BIT       LED_GREEN
      000000D8H.4 SFRSYM    DATA     BIT       PCA0CN0_CCF4
      000000D4H   SFRSYM    DATA     WORD      TMR5
      000000C0H.3 SFRSYM    DATA     BIT       SMB0CN0_ACKRQ
      000000D8H.5 SFRSYM    DATA     BIT       PCA0CN0_CCF5
      000000FFH   SFRSYM    DATA     BYTE      VDM0CN
      000000F1H   SFRSYM    DATA     BYTE      P0MDIN
      000000AFH   SFRSYM    DATA     BYTE      CLU0FN
      00000098H.4 SFRSYM    DATA     BIT       SCON0_REN
      000000ACH   SFRSYM    DATA     BYTE      SMB0TC
      000000F2H   SFRSYM    DATA     BYTE      P1MDIN
      000000B2H   SFRSYM    DATA     BYTE      CLU1FN
      000000C8H.4 SFRSYM    DATA     BIT       SCON1_REN
      000000F3H   SFRSYM    DATA     BYTE      P2MDIN
      000000B5H   SFRSYM    DATA     BYTE      CLU2FN
      000000C0H.4 SFRSYM    DATA     BIT       SMB0CN0_STO
      000000F4H   SFRSYM    DATA     BYTE      P3MDIN
      000000B9H   SFRSYM    DATA     BYTE      I2C0STAT
      000000BBH   SFRSYM    DATA     BYTE      I2C0DOUT
      000000BEH   SFRSYM    DATA     BYTE      CLU3FN
      00000096H   SFRSYM    DATA     BYTE      SBRLH1
      000000FEH   SFRSYM    DATA     BYTE      P0MASK
      000000D8H.5 SFRSYM    DATA     BIT       UART1FCN1_TXHOLD
      000000EEH   SFRSYM    DATA     BYTE      P1MASK
      000000FCH   SFRSYM    DATA     BYTE      P2MASK
      000000D0H.3 SFRSYM    DATA     BIT       PSW_RS0
      000000D8H.7 SFRSYM    DATA     BIT       PCA0CN0_CF
      0000009EH   SFRSYM    DATA     BYTE      PCA0CENT
      000000BAH   SFRSYM    DATA     BYTE      I2C0CN0
      000000D2H   SFRSYM    DATA     BYTE      CRC0ST
      000000F8H.4 SFRSYM    DATA     BIT       SPI0CN0_RXOVRN
      000000D0H.4 SFRSYM    DATA     BIT       PSW_RS1
      00000095H   SFRSYM    DATA     BYTE      SBRLL1
      000000C8H.2 SFRSYM    DATA     BIT       SCON1_RBX
      00000091H   SFRSYM    DATA     BYTE      DAC0CF0
      000000BCH   SFRSYM    DATA     BYTE      ADC0CF0
      000000C8H   SFRSYM    DATA     BIT       TMR2CN0_T2XCLK0
      00000093H   SFRSYM    DATA     BYTE      DAC1CF0
      00000092H   SFRSYM    DATA     BYTE      DAC0CF1
      000000B9H   SFRSYM    DATA     BYTE      ADC0CF1
      000000C8H.1 SFRSYM    DATA     BIT       TMR2CN0_T2XCLK1
      000000C8H.3 SFRSYM    DATA     BIT       SCON1_TBX
      000000E8H.7 SFRSYM    DATA     BIT       ADC0CN0_ADEN
      00000089H   SFRSYM    DATA     BYTE      TMOD
      00000088H   SFRSYM    DATA     BYTE      TCON
      00000095H   SFRSYM    DATA     BYTE      DAC2CF0
      00000094H   SFRSYM    DATA     BYTE      DAC1CF1
      000000DFH   SFRSYM    DATA     BYTE      ADC0CF2
      0000009AH   SFRSYM    DATA     BYTE      DAC3CF0
      00000096H   SFRSYM    DATA     BYTE      DAC2CF1
      000000CFH   SFRSYM    DATA     BYTE      CRC0FLIP
      000000D0H   SFRSYM    DATA     BIT       PSW_PARITY
      000000A8H.4 SFRSYM    DATA     BIT       IE_ES0
LX51 LINKER/LOCATER V4.66.30.0                                                        04/24/2017  21:26:22  PAGE 110


      0000009CH   SFRSYM    DATA     BYTE      DAC3CF1
      0000009FH   SFRSYM    DATA     BYTE      CMP0MX
      00000098H   SFRSYM    DATA     BIT       TMR4CN0_T4XCLK0
      000000A8H.1 SFRSYM    DATA     BIT       IE_ET0
      000000AAH   SFRSYM    DATA     BYTE      CMP1MX
      00000098H.1 SFRSYM    DATA     BIT       TMR4CN0_T4XCLK1
      000000A8H.3 SFRSYM    DATA     BIT       IE_ET1
      000000D4H   SFRSYM    DATA     BYTE      P0SKIP
      000000D1H   SFRSYM    DATA     BYTE      CLOUT0
      00000090H.7 SFRSYM    DATA     BIT       BSP_JOYSTICK
      000000D8H   SFRSYM    DATA     BIT       UART1FCN1_RIE
      000000C0H   SFRSYM    DATA     BIT       TMR5CN0_T5XCLK0
      000000A8H.5 SFRSYM    DATA     BIT       IE_ET2
      00000088H   SFRSYM    DATA     BIT       DACGCF0_D1SRC0
      000000D5H   SFRSYM    DATA     BYTE      P1SKIP
      000000C0H.1 SFRSYM    DATA     BIT       TMR5CN0_T5XCLK1
      00000088H.1 SFRSYM    DATA     BIT       DACGCF0_D1SRC1
      000000CCH   SFRSYM    DATA     BYTE      P2SKIP
      00000084H   SFRSYM    DATA     BYTE      CLU0MX
      000000E8H   SFRSYM    DATA     BYTE      ADC0CN0
      000000D8H.4 SFRSYM    DATA     BIT       UART1FCN1_TIE
      000000A8H   SFRSYM    DATA     BIT       IE_EX0
      00000088H.4 SFRSYM    DATA     BIT       DACGCF0_D3SRC0
      00000085H   SFRSYM    DATA     BYTE      CLU1MX
      000000B2H   SFRSYM    DATA     BYTE      ADC0CN1
      000000D8H.6 SFRSYM    DATA     BIT       PCA0CN0_CR
      000000A8H.2 SFRSYM    DATA     BIT       IE_EX1
      00000088H.5 SFRSYM    DATA     BIT       DACGCF0_D3SRC1
      00000091H   SFRSYM    DATA     BYTE      CLU2MX
      000000B3H   SFRSYM    DATA     BYTE      ADC0CN2
      00000090H.5 SFRSYM    DATA     BIT       BSP_LED_B
      000000C8H.7 SFRSYM    DATA     BIT       SCON1_OVR
      000000AAH   SFRSYM    DATA     BYTE      PSTAT0
      000000AEH   SFRSYM    DATA     BYTE      CLU3MX
      000000A0H.2 SFRSYM    DATA     BIT       BSP_BC_EN
      00000098H.7 SFRSYM    DATA     BIT       SCON0_SMODE
      000000B5H   SFRSYM    DATA     BYTE      DEVICEID
      000000A9H   SFRSYM    DATA     BYTE      CLKSEL
      000000F8H   SFRSYM    DATA     BIT       SPI0CN0_SPIEN
      00000085H   SFRSYM    DATA     BYTE      DAC0H
      000000F0H   SFRSYM    DATA     BYTE      B
      000000BEH   SFRSYM    DATA     BYTE      ADC0H
      000000FFH   SFRSYM    DATA     BYTE      I2C0ADM
      0000008AH   SFRSYM    DATA     BYTE      DAC1H
      00000090H.4 SFRSYM    DATA     BIT       BSP_LED_G
      00000088H.2 SFRSYM    DATA     BIT       DACGCF0_D1AMEN
      0000008CH   SFRSYM    DATA     BYTE      DAC2H
      0000008EH   SFRSYM    DATA     BYTE      DAC3H
      00000088H.6 SFRSYM    DATA     BIT       DACGCF0_D3AMEN
      000000CAH   SFRSYM    DATA     WORD      TMR2RL
      00000084H   SFRSYM    DATA     BYTE      DAC0L
      000000BDH   SFRSYM    DATA     BYTE      ADC0L
      00000092H   SFRSYM    DATA     WORD      TMR3RL
      00000089H   SFRSYM    DATA     BYTE      DAC1L
      000000A2H   SFRSYM    DATA     WORD      TMR4RL
      000000D8H   SFRSYM    DATA     BYTE      PCA0CN0
      0000008BH   SFRSYM    DATA     BYTE      DAC2L
      000000E0H   SFRSYM    DATA     BYTE      ACC
      000000D2H   SFRSYM    DATA     WORD      TMR5RL
      000000D9H   SFRSYM    DATA     BYTE      UART0PCF
      0000008DH   SFRSYM    DATA     BYTE      DAC3L
      000000FBH   SFRSYM    DATA     WORD      PCA0CP0
LX51 LINKER/LOCATER V4.66.30.0                                                        04/24/2017  21:26:22  PAGE 111


      000000DAH   SFRSYM    DATA     BYTE      UART1PCF
      000000E9H   SFRSYM    DATA     WORD      PCA0CP1
      00000088H   SFRSYM    DATA     BYTE      DACGCF0
      000000EBH   SFRSYM    DATA     WORD      PCA0CP2
      000000BCH   SFRSYM    DATA     BYTE      I2C0DIN
      00000098H   SFRSYM    DATA     BYTE      DACGCF1
      000000CEH   SFRSYM    DATA     BYTE      CRC0CN0
      000000F4H   SFRSYM    DATA     WORD      PCA0CP3
      0000008CH   SFRSYM    DATA     BYTE      TH0
      000000A2H   SFRSYM    DATA     BYTE      DACGCF2
      00000086H   SFRSYM    DATA     BYTE      CRC0CN1
      000000B8H.4 SFRSYM    DATA     BIT       IP_PS0
      00000084H   SFRSYM    DATA     WORD      PCA0CP4
      000000FAH   SFRSYM    DATA     BYTE      UART1FCT
      0000008DH   SFRSYM    DATA     BYTE      TH1
      000000FAH   SFRSYM    DATA     BYTE      PCA0H
      000000F5H   SFRSYM    DATA     BYTE      I2C0FCT
      00000090H.6 SFRSYM    DATA     BIT       BSP_LED_R
      000000B8H.1 SFRSYM    DATA     BIT       IP_PT0
      000000DDH   SFRSYM    DATA     WORD      PCA0CP5
      000000C7H   SFRSYM    DATA     BYTE      CLIE0
      000000B8H.3 SFRSYM    DATA     BIT       IP_PT1
      00000088H.3 SFRSYM    DATA     BIT       DACGCF0_D01REFSL
      000000B5H   SFRSYM    DATA     WORD      ADC0ASA
      000000E8H   SFRSYM    DATA     BYTE      CLIF0
      000000C0H.2 SFRSYM    DATA     BIT       SMB0CN0_ARBLOST
      000000B8H.5 SFRSYM    DATA     BIT       IP_PT2
      0000008AH   SFRSYM    DATA     BYTE      TL0
      000000D0H.5 SFRSYM    DATA     BIT       PSW_F0
      000000A8H.6 SFRSYM    DATA     BIT       IE_ESPI0
      0000008BH   SFRSYM    DATA     BYTE      TL1
      000000F9H   SFRSYM    DATA     BYTE      PCA0L
      000000C0H   SFRSYM    DATA     BIT       SMB0CN0_SI
      000000D0H.1 SFRSYM    DATA     BIT       PSW_F1
      00000080H   SFRSYM    DATA     BIT       P0_B0
      000000B8H   SFRSYM    DATA     BIT       IP_PX0
      00000090H   SFRSYM    DATA     BIT       P1_B0
      00000080H.1 SFRSYM    DATA     BIT       P0_B1
      000000B8H.2 SFRSYM    DATA     BIT       IP_PX1
      00000088H.7 SFRSYM    DATA     BIT       DACGCF0_D23REFSL
      0000009EH   SFRSYM    DATA     BYTE      UART1LIN
      0000009BH   SFRSYM    DATA     BYTE      CMP0CN0
      000000C6H   SFRSYM    DATA     BYTE      CLEN0
      00000088H.1 SFRSYM    DATA     BIT       TCON_IE0
      000000A0H   SFRSYM    DATA     BIT       P2_B0
      00000090H.1 SFRSYM    DATA     BIT       P1_B1
      00000080H.2 SFRSYM    DATA     BIT       P0_B2
      000000BFH   SFRSYM    DATA     BYTE      CMP1CN0
      00000099H   SFRSYM    DATA     BYTE      CMP0CN1
      00000088H.3 SFRSYM    DATA     BIT       TCON_IE1
      000000B0H   SFRSYM    DATA     BIT       P3_B0
      000000A0H.1 SFRSYM    DATA     BIT       P2_B1
      00000090H.2 SFRSYM    DATA     BIT       P1_B2
      00000080H.3 SFRSYM    DATA     BIT       P0_B3
      000000C0H   SFRSYM    DATA     BYTE      SMB0CN0
      000000ACH   SFRSYM    DATA     BYTE      CMP1CN1
      000000B0H.1 SFRSYM    DATA     BIT       P3_B1
      000000A0H.2 SFRSYM    DATA     BIT       P2_B2
      00000090H.3 SFRSYM    DATA     BIT       P1_B3
      00000080H.4 SFRSYM    DATA     BIT       P0_B4
      000000B0H.2 SFRSYM    DATA     BIT       P3_B2
      000000A0H.3 SFRSYM    DATA     BIT       P2_B3
LX51 LINKER/LOCATER V4.66.30.0                                                        04/24/2017  21:26:22  PAGE 112


      00000090H.4 SFRSYM    DATA     BIT       P1_B4
      00000080H.5 SFRSYM    DATA     BIT       P0_B5
      00000098H   SFRSYM    DATA     BIT       DACGCF1_D0UDIS
      000000D8H.1 SFRSYM    DATA     BIT       UART1FCN1_RXTO0
      000000B0H.3 SFRSYM    DATA     BIT       P3_B3
      000000A0H.4 SFRSYM    DATA     BIT       P2_B4
      00000090H.5 SFRSYM    DATA     BIT       P1_B5
      00000080H.6 SFRSYM    DATA     BIT       P0_B6
      00000098H.1 SFRSYM    DATA     BIT       DACGCF1_D1UDIS
      000000EEH   SFRSYM    DATA     BYTE      EIP1H
      000000D8H.2 SFRSYM    DATA     BIT       UART1FCN1_RXTO1
      000000B0H.4 SFRSYM    DATA     BIT       P3_B4
      000000A0H.5 SFRSYM    DATA     BIT       P2_B5
      00000090H.6 SFRSYM    DATA     BIT       P1_B6
      00000080H.7 SFRSYM    DATA     BIT       P0_B7
      00000098H.2 SFRSYM    DATA     BIT       DACGCF1_D2UDIS
      000000C5H   SFRSYM    DATA     BYTE      SMB0RXLN
      000000F6H   SFRSYM    DATA     BYTE      EIP2H
      000000A0H.6 SFRSYM    DATA     BIT       P2_B6
      00000090H.7 SFRSYM    DATA     BIT       P1_B7
      00000098H.3 SFRSYM    DATA     BIT       DACGCF1_D3UDIS
      000000B0H.7 SFRSYM    DATA     BIT       P3_B7
      00000083H   SFRSYM    DATA     BYTE      DPH
      000000C4H   SFRSYM    DATA     BYTE      ADC0GTH
      000000C8H.7 SFRSYM    DATA     BIT       TMR2CN0_TF2H
      000000C8H.3 SFRSYM    DATA     BIT       TMR2CN0_T2SPLIT
      00000090H.5 SFRSYM    DATA     BIT       LED_BLUE
      000000D0H.6 SFRSYM    DATA     BIT       PSW_AC
      000000F8H   SFRSYM    DATA     BYTE      SPI0CN0
      000000C7H   SFRSYM    DATA     BYTE      HFO0CAL
      00000088H.5 SFRSYM    DATA     BIT       TCON_TF0
      00000098H   SFRSYM    DATA     BIT       SCON0_RI
      000000D6H   SFRSYM    DATA     BYTE      HFO1CAL
      00000082H   SFRSYM    DATA     BYTE      DPL
      00000088H.7 SFRSYM    DATA     BIT       TCON_TF1
      000000C8H   SFRSYM    DATA     BIT       SCON1_RI
      00000099H   SFRSYM    DATA     BYTE      SBUF0
      00000087H   SFRSYM    DATA     BYTE      PCON0
      000000F2H   SFRSYM    DATA     BYTE      IPH
      000000C3H   SFRSYM    DATA     BYTE      ADC0GTL
      00000098H.7 SFRSYM    DATA     BIT       TMR4CN0_TF4H
      00000098H.3 SFRSYM    DATA     BIT       TMR4CN0_T4SPLIT
      000000C8H.6 SFRSYM    DATA     BIT       TMR2CN0_TF2L
      00000098H.1 SFRSYM    DATA     BIT       SCON0_TI
      00000092H   SFRSYM    DATA     BYTE      SBUF1
      000000CDH   SFRSYM    DATA     BYTE      PCON1
      000000C6H   SFRSYM    DATA     BYTE      ADC0LTH
      00000088H   SFRSYM    DATA     BIT       TCON_IT0
      000000C8H.1 SFRSYM    DATA     BIT       SCON1_TI
      000000EFH   SFRSYM    DATA     BYTE      RSTSRC
      000000FDH   SFRSYM    DATA     BYTE      P0MAT
      000000CBH   SFRSYM    DATA     BYTE      CRC0DAT
      000000C0H.7 SFRSYM    DATA     BIT       TMR5CN0_TF5H
      000000C0H.3 SFRSYM    DATA     BIT       TMR5CN0_T5SPLIT
      00000088H.2 SFRSYM    DATA     BIT       TCON_IT1
      000000D7H   SFRSYM    DATA     BYTE      SFRSTACK
      00000098H   SFRSYM    DATA     BYTE      SCON0
      000000F6H   SFRSYM    DATA     BYTE      PRTDRV
      000000EDH   SFRSYM    DATA     BYTE      P1MAT
      000000E8H.3 SFRSYM    DATA     BIT       ADC0CN0_ADWINT
      00000093H   SFRSYM    DATA     BYTE      SMOD1
      000000C8H   SFRSYM    DATA     BYTE      SCON1
LX51 LINKER/LOCATER V4.66.30.0                                                        04/24/2017  21:26:22  PAGE 113


      000000FBH   SFRSYM    DATA     BYTE      P2MAT
      00000098H.6 SFRSYM    DATA     BIT       TMR4CN0_TF4L
      000000E8H.4 SFRSYM    DATA     BIT       ADC0CN0_ADBUSY
      000000D6H   SFRSYM    DATA     BYTE      SMB0ADM
      000000C5H   SFRSYM    DATA     BYTE      ADC0LTL
      000000F8H.5 SFRSYM    DATA     BIT       SPI0CN0_MODF
      000000B8H.6 SFRSYM    DATA     BIT       IP_PSPI0
      000000E8H.1 SFRSYM    DATA     BIT       ADC0CN0_ADGN0
      0000009CH   SFRSYM    DATA     BYTE      PCA0CLR
      000000C0H.6 SFRSYM    DATA     BIT       TMR5CN0_TF5L
      000000E8H.2 SFRSYM    DATA     BIT       ADC0CN0_ADGN1
      000000C8H   SFRSYM    DATA     BYTE      TMR2CN0
      00000091H   SFRSYM    DATA     BYTE      TMR3CN0
      000000FDH   SFRSYM    DATA     BYTE      TMR2CN1
      00000098H   SFRSYM    DATA     BYTE      TMR4CN0
      000000FEH   SFRSYM    DATA     BYTE      TMR3CN1
      000000B0H.4 SFRSYM    DATA     BIT       BSP_DISP_EN
      000000C0H   SFRSYM    DATA     BYTE      TMR5CN0
      000000FFH   SFRSYM    DATA     BYTE      TMR4CN1
      000000D7H   SFRSYM    DATA     BYTE      SMB0ADR
      00000088H.4 SFRSYM    DATA     BIT       TCON_TR0
      000000F1H   SFRSYM    DATA     BYTE      TMR5CN1
      000000C8H.4 SFRSYM    DATA     BIT       TMR2CN0_TF2CEN
      00000088H.6 SFRSYM    DATA     BIT       TCON_TR1
      000000C2H   SFRSYM    DATA     BYTE      SMB0DAT
      000000A0H.6 SFRSYM    DATA     BIT       BSP_DISP_CS
      000000CFH   SFRSYM    DATA     BYTE      TMR2H
      000000A1H   SFRSYM    DATA     BYTE      SPI0CFG
      00000095H   SFRSYM    DATA     BYTE      TMR3H
      000000EFH   SFRSYM    DATA     BYTE      HFOCN
      000000D3H   SFRSYM    DATA     BYTE      CRC0CNT
      000000A5H   SFRSYM    DATA     BYTE      TMR4H
      00000098H.4 SFRSYM    DATA     BIT       TMR4CN0_TF4CEN
      000000D5H   SFRSYM    DATA     BYTE      TMR5H
      000000EFH   SFRSYM    DATA     BYTE      SMB0FCT
      00000096H   SFRSYM    DATA     BYTE      PCA0POL
      000000CEH   SFRSYM    DATA     BYTE      TMR2L
      000000C0H.4 SFRSYM    DATA     BIT       TMR5CN0_TF5CEN
      000000F8H.7 SFRSYM    DATA     BIT       SPI0CN0_SPIF
      00000094H   SFRSYM    DATA     BYTE      TMR3L
      000000A8H.7 SFRSYM    DATA     BIT       IE_EA
      000000A4H   SFRSYM    DATA     BYTE      TMR4L
      000000D4H   SFRSYM    DATA     BYTE      TMR5L
      000000C8H.5 SFRSYM    DATA     BIT       TMR2CN0_TF2LEN
      000000F8H.6 SFRSYM    DATA     BIT       SPI0CN0_WCOL
      000000F8H.2 SFRSYM    DATA     BIT       SPI0CN0_NSSMD0
      000000D0H.7 SFRSYM    DATA     BIT       PSW_CY
      0000009DH   SFRSYM    DATA     BYTE      UART1FCN0
      000000DFH   SFRSYM    DATA     BYTE      SPI0PCF
      000000A3H   SFRSYM    DATA     BYTE      SPI0DAT
      000000ADH   SFRSYM    DATA     BYTE      I2C0FCN0
      000000F8H.3 SFRSYM    DATA     BIT       SPI0CN0_NSSMD1
      000000BDH   SFRSYM    DATA     WORD      ADC0
      000000D8H   SFRSYM    DATA     BYTE      UART1FCN1
      000000ABH   SFRSYM    DATA     BYTE      I2C0FCN1
      000000E8H   SFRSYM    DATA     BIT       CLIF0_C0FIF
      00000098H.5 SFRSYM    DATA     BIT       TMR4CN0_TF4LEN
      000000E8H.2 SFRSYM    DATA     BIT       CLIF0_C1FIF
      000000D0H   SFRSYM    DATA     BYTE      PSW
      000000F7H   SFRSYM    DATA     BYTE      PCA0PWM
      000000E8H.4 SFRSYM    DATA     BIT       CLIF0_C2FIF
      000000F7H   SFRSYM    DATA     BYTE      SPI0FCT
LX51 LINKER/LOCATER V4.66.30.0                                                        04/24/2017  21:26:22  PAGE 114


      000000B6H   SFRSYM    DATA     BYTE      REVID
      000000C0H.5 SFRSYM    DATA     BIT       TMR5CN0_TF5LEN
      000000E8H.6 SFRSYM    DATA     BIT       CLIF0_C3FIF
      000000B7H   SFRSYM    DATA     BYTE      FLKEY
      01000651H   SYMBOL    CODE     ---       dpad_n_bits
      01000851H   SYMBOL    CODE     ---       dpad_bold_sw_bits
      01000771H   SYMBOL    CODE     ---       dpad_bold_n_bits
      01000691H   SYMBOL    CODE     ---       dpad_s_bits
      01000331H   SYMBOL    CODE     ---       thinfont_bits
      010007B1H   SYMBOL    CODE     ---       dpad_bold_s_bits
      010006B1H   SYMBOL    CODE     ---       dpad_w_bits
      010007D1H   SYMBOL    CODE     ---       dpad_bold_w_bits
      0000000CH   SYMBOL    DATA     WORD      time
      01000711H   SYMBOL    CODE     ---       dpad_ne_bits
      01000831H   SYMBOL    CODE     ---       dpad_bold_ne_bits
      01000751H   SYMBOL    CODE     ---       dpad_se_bits
      01000871H   SYMBOL    CODE     ---       dpad_bold_se_bits
      010006D1H   SYMBOL    CODE     ---       dpad_c_bits
      01000671H   SYMBOL    CODE     ---       dpad_e_bits
      010006F1H   SYMBOL    CODE     ---       dpad_nw_bits
      010007F1H   SYMBOL    CODE     ---       dpad_bold_c_bits
      01000791H   SYMBOL    CODE     ---       dpad_bold_e_bits
      01000811H   SYMBOL    CODE     ---       dpad_bold_nw_bits
      01000731H   SYMBOL    CODE     ---       dpad_sw_bits

      01000E07H   BLOCK     CODE     VOID      LVL=0
      ---         BLOCKEND  ---      ---       LVL=0

      01000E18H   BLOCK     CODE     ---       LVL=0
      0000002BH   SYMBOL    DATA     WORD      mVolt
      0000002DH   SYMBOL    DATA     ---       voltStr
      00000030H   SYMBOL    DATA     CHAR      pos
      01000E22H   BLOCK     CODE     NEAR LAB  LVL=1
      00000030H   SYMBOL    DATA     CHAR      pos
      ---         BLOCKEND  ---      ---       LVL=1
      01000E18H   LINE      CODE     ---       #109
      01000E22H   LINE      CODE     ---       #110
      01000E22H   LINE      CODE     ---       #111
      01000E25H   LINE      CODE     ---       #117
      01000E35H   LINE      CODE     ---       #118
      01000E46H   LINE      CODE     ---       #125
      01000E46H   LINE      CODE     ---       #126
      01000E46H   LINE      CODE     ---       #128
      01000E4BH   LINE      CODE     ---       #129
      01000E4BH   LINE      CODE     ---       #130
      01000E5EH   LINE      CODE     ---       #131
      01000E60H   LINE      CODE     ---       #133
      01000E60H   LINE      CODE     ---       #136
      01000E83H   LINE      CODE     ---       #139
      01000E92H   LINE      CODE     ---       #140
      01000E92H   LINE      CODE     ---       #141
      01000E9DH   LINE      CODE     ---       #142
      ---         BLOCKEND  ---      ---       LVL=0

      01000F93H   BLOCK     CODE     ---       LVL=0
      0000002BH   SYMBOL    DATA     ---       str
      0000002EH   SYMBOL    DATA     BYTE      rowNum
      0000002FH   SYMBOL    DATA     BYTE      fontScale
      01000F9BH   BLOCK     CODE     NEAR LAB  LVL=1
      00000030H   SYMBOL    DATA     BYTE      i
      00000031H   SYMBOL    DATA     BYTE      j
      ---         BLOCKEND  ---      ---       LVL=1
LX51 LINKER/LOCATER V4.66.30.0                                                        04/24/2017  21:26:22  PAGE 115


      01000F93H   LINE      CODE     ---       #154
      01000F9BH   LINE      CODE     ---       #155
      01000F9BH   LINE      CODE     ---       #158
      01000F9EH   LINE      CODE     ---       #159
      01000F9EH   LINE      CODE     ---       #160
      01000FA5H   LINE      CODE     ---       #161
      01000FBCH   LINE      CODE     ---       #163
      01000FD4H   LINE      CODE     ---       #164
      01000FD4H   LINE      CODE     ---       #165
      01000FE8H   LINE      CODE     ---       #166
      01000FECH   LINE      CODE     ---       #167
      01000FF5H   LINE      CODE     ---       #168
      ---         BLOCKEND  ---      ---       LVL=0

      010012C5H   BLOCK     CODE     ---       LVL=0
      010012C7H   BLOCK     CODE     NEAR LAB  LVL=1
      00000008H   SYMBOL    DATA     WORD      counter
      ---         BLOCKEND  ---      ---       LVL=1
      010012C5H   LINE      CODE     ---       #172
      010012C7H   LINE      CODE     ---       #176
      010012CFH   LINE      CODE     ---       #178
      010012D5H   LINE      CODE     ---       #179
      010012D5H   LINE      CODE     ---       #181
      010012DDH   LINE      CODE     ---       #182
      010012E3H   LINE      CODE     ---       #183
      010012E3H   LINE      CODE     ---       #184
      ---         BLOCKEND  ---      ---       LVL=0

      01001431H   BLOCK     CODE     ---       LVL=0
      01001431H   LINE      CODE     ---       #188
      01001431H   LINE      CODE     ---       #191
      01001434H   LINE      CODE     ---       #192
      01001436H   LINE      CODE     ---       #193
      01001436H   LINE      CODE     ---       #194
      ---         BLOCKEND  ---      ---       LVL=0

      01001437H   BLOCK     CODE     ---       LVL=0
      01001437H   LINE      CODE     ---       #196
      01001437H   LINE      CODE     ---       #199
      0100143AH   LINE      CODE     ---       #200
      0100143CH   LINE      CODE     ---       #201
      0100143CH   LINE      CODE     ---       #202
      ---         BLOCKEND  ---      ---       LVL=0

      01001282H   BLOCK     CODE     ---       LVL=0
      01001282H   LINE      CODE     ---       #206
      01001282H   LINE      CODE     ---       #207
      01001288H   LINE      CODE     ---       #208
      0100128BH   LINE      CODE     ---       #209
      010012A0H   LINE      CODE     ---       #210
      010012A0H   LINE      CODE     ---       #211
      010012A3H   LINE      CODE     ---       #212
      ---         BLOCKEND  ---      ---       LVL=0

      01000C0BH   BLOCK     CODE     ---       LVL=0
      01000C0BH   LINE      CODE     ---       #214
      01000C0BH   LINE      CODE     ---       #215
      01000C19H   LINE      CODE     ---       #216
      01000C27H   LINE      CODE     ---       #217
      01000C35H   LINE      CODE     ---       #218
      01000C43H   LINE      CODE     ---       #219
      01000C51H   LINE      CODE     ---       #220
LX51 LINKER/LOCATER V4.66.30.0                                                        04/24/2017  21:26:22  PAGE 116


      01000C5FH   LINE      CODE     ---       #221
      01000C6DH   LINE      CODE     ---       #222
      01000C7BH   LINE      CODE     ---       #223
      01000C89H   LINE      CODE     ---       #224
      01000C97H   LINE      CODE     ---       #225
      01000CA5H   LINE      CODE     ---       #226
      01000CB3H   LINE      CODE     ---       #227
      01000CC1H   LINE      CODE     ---       #230
      01000CC4H   LINE      CODE     ---       #231
      01000CC6H   LINE      CODE     ---       #232
      ---         BLOCKEND  ---      ---       LVL=0

      010010A7H   BLOCK     CODE     ---       LVL=0
      010010A7H   BLOCK     CODE     NEAR LAB  LVL=1
      00000027H   SYMBOL    DATA     DWORD     adcVoltage
      ---         BLOCKEND  ---      ---       LVL=1
      010010A7H   LINE      CODE     ---       #236
      010010A7H   LINE      CODE     ---       #237
      010010A7H   LINE      CODE     ---       #238
      010010B0H   LINE      CODE     ---       #241
      010010B2H   LINE      CODE     ---       #242
      010010B5H   LINE      CODE     ---       #244
      010010B8H   LINE      CODE     ---       #245
      010010BDH   LINE      CODE     ---       #248
      010010BDH   LINE      CODE     ---       #250
      010010CBH   LINE      CODE     ---       #251
      010010D9H   LINE      CODE     ---       #253
      010010DCH   LINE      CODE     ---       #254
      010010EAH   LINE      CODE     ---       #257
      010010EDH   LINE      CODE     ---       #258
      010010F0H   LINE      CODE     ---       #259
      010010F0H   LINE      CODE     ---       #261
      010010F3H   LINE      CODE     ---       #263
      ---         BLOCKEND  ---      ---       LVL=0

      ---         MODULE    ---      ---       ?C_INIT
      01000EE5H   PUBLIC    CODE     ---       ?C_START

      ---         MODULE    ---      ---       ?C?CLDPTR
      01000891H   PUBLIC    CODE     ---       ?C?CLDPTR

      ---         MODULE    ---      ---       ?C?CLDOPTR
      010008AAH   PUBLIC    CODE     ---       ?C?CLDOPTR

      ---         MODULE    ---      ---       ?C?CSTOPTR
      010008D7H   PUBLIC    CODE     ---       ?C?CSTOPTR

      ---         MODULE    ---      ---       ?C?IMUL
      010008F9H   PUBLIC    CODE     ---       ?C?IMUL

      ---         MODULE    ---      ---       ?C?UIDIV
      0100090BH   PUBLIC    CODE     ---       ?C?UIDIV

      ---         MODULE    ---      ---       ?C?LMUL
      01000960H   PUBLIC    CODE     ---       ?C?LMUL

      ---         MODULE    ---      ---       ?C?ULDIV
      010009EBH   PUBLIC    CODE     ---       ?C?ULDIV

      ---         MODULE    ---      ---       ?C?ULCMP
      01000A7DH   PUBLIC    CODE     ---       ?C?ULCMP

LX51 LINKER/LOCATER V4.66.30.0                                                        04/24/2017  21:26:22  PAGE 117


      ---         MODULE    ---      ---       ?C?ULSHR
      01000A8EH   PUBLIC    CODE     ---       ?C?ULSHR



*** WARNING L30: MEMORY SPACE OVERLAP
    FROM:    C:000000H   
    TO:      C:000003H   

*** WARNING L30: MEMORY SPACE OVERLAP
    FROM:    C:000003H   
    TO:      C:000006H   

*** WARNING L30: MEMORY SPACE OVERLAP
    FROM:    C:00000BH   
    TO:      C:00000EH   

*** WARNING L30: MEMORY SPACE OVERLAP
    FROM:    C:000013H   
    TO:      C:000016H   

*** WARNING L30: MEMORY SPACE OVERLAP
    FROM:    C:00002BH   
    TO:      C:00002EH   

*** WARNING L30: MEMORY SPACE OVERLAP
    FROM:    C:000033H   
    TO:      C:000036H   

*** WARNING L30: MEMORY SPACE OVERLAP
    FROM:    C:000053H   
    TO:      C:000056H   

*** WARNING L30: MEMORY SPACE OVERLAP
    FROM:    C:000073H   
    TO:      C:000076H   

Program Size: data=94.6 xdata=54 const=800 code=5213
LX51 RUN COMPLETE.  8 WARNING(S),  0 ERROR(S)
